
LED_CUBE.elf:     file format elf32-avr

Sections:
Idx Name          Size      VMA       LMA       File off  Algn
  0 .text         00002126  00000000  00000000  00000094  2**1
                  CONTENTS, ALLOC, LOAD, READONLY, CODE
  1 .data         0000035a  00800060  00002126  000021ba  2**0
                  CONTENTS, ALLOC, LOAD, DATA
  2 .bss          00000105  008003ba  008003ba  00002514  2**0
                  ALLOC
  3 .stab         00001cd4  00000000  00000000  00002514  2**2
                  CONTENTS, READONLY, DEBUGGING
  4 .stabstr      00000773  00000000  00000000  000041e8  2**0
                  CONTENTS, READONLY, DEBUGGING
  5 .comment      0000002f  00000000  00000000  0000495b  2**0
                  CONTENTS, READONLY
  6 .debug_aranges 000001d0  00000000  00000000  0000498a  2**0
                  CONTENTS, READONLY, DEBUGGING
  7 .debug_info   00002f1e  00000000  00000000  00004b5a  2**0
                  CONTENTS, READONLY, DEBUGGING
  8 .debug_abbrev 00000863  00000000  00000000  00007a78  2**0
                  CONTENTS, READONLY, DEBUGGING
  9 .debug_line   00001298  00000000  00000000  000082db  2**0
                  CONTENTS, READONLY, DEBUGGING
 10 .debug_frame  000007e0  00000000  00000000  00009574  2**2
                  CONTENTS, READONLY, DEBUGGING
 11 .debug_str    00000735  00000000  00000000  00009d54  2**0
                  CONTENTS, READONLY, DEBUGGING
 12 .debug_loc    00003715  00000000  00000000  0000a489  2**0
                  CONTENTS, READONLY, DEBUGGING
 13 .debug_ranges 000009e0  00000000  00000000  0000db9e  2**0
                  CONTENTS, READONLY, DEBUGGING

Disassembly of section .text:

00000000 <__vectors>:
       0:	0c 94 2a 00 	jmp	0x54	; 0x54 <__ctors_end>
       4:	0c 94 47 00 	jmp	0x8e	; 0x8e <__bad_interrupt>
       8:	0c 94 47 00 	jmp	0x8e	; 0x8e <__bad_interrupt>
       c:	0c 94 47 00 	jmp	0x8e	; 0x8e <__bad_interrupt>
      10:	0c 94 47 00 	jmp	0x8e	; 0x8e <__bad_interrupt>
      14:	0c 94 47 00 	jmp	0x8e	; 0x8e <__bad_interrupt>
      18:	0c 94 47 00 	jmp	0x8e	; 0x8e <__bad_interrupt>
      1c:	0c 94 47 00 	jmp	0x8e	; 0x8e <__bad_interrupt>
      20:	0c 94 47 00 	jmp	0x8e	; 0x8e <__bad_interrupt>
      24:	0c 94 6e 01 	jmp	0x2dc	; 0x2dc <__vector_9>
      28:	0c 94 47 00 	jmp	0x8e	; 0x8e <__bad_interrupt>
      2c:	0c 94 7d 01 	jmp	0x2fa	; 0x2fa <__vector_11>
      30:	0c 94 47 00 	jmp	0x8e	; 0x8e <__bad_interrupt>
      34:	0c 94 03 01 	jmp	0x206	; 0x206 <__vector_13>
      38:	0c 94 47 00 	jmp	0x8e	; 0x8e <__bad_interrupt>
      3c:	0c 94 47 00 	jmp	0x8e	; 0x8e <__bad_interrupt>
      40:	0c 94 47 00 	jmp	0x8e	; 0x8e <__bad_interrupt>
      44:	0c 94 47 00 	jmp	0x8e	; 0x8e <__bad_interrupt>
      48:	0c 94 47 00 	jmp	0x8e	; 0x8e <__bad_interrupt>
      4c:	0c 94 47 00 	jmp	0x8e	; 0x8e <__bad_interrupt>
      50:	0c 94 47 00 	jmp	0x8e	; 0x8e <__bad_interrupt>

00000054 <__ctors_end>:
      54:	11 24       	eor	r1, r1
      56:	1f be       	out	0x3f, r1	; 63
      58:	cf e5       	ldi	r28, 0x5F	; 95
      5a:	d8 e0       	ldi	r29, 0x08	; 8
      5c:	de bf       	out	0x3e, r29	; 62
      5e:	cd bf       	out	0x3d, r28	; 61

00000060 <__do_copy_data>:
      60:	13 e0       	ldi	r17, 0x03	; 3
      62:	a0 e6       	ldi	r26, 0x60	; 96
      64:	b0 e0       	ldi	r27, 0x00	; 0
      66:	e6 e2       	ldi	r30, 0x26	; 38
      68:	f1 e2       	ldi	r31, 0x21	; 33
      6a:	02 c0       	rjmp	.+4      	; 0x70 <__do_copy_data+0x10>
      6c:	05 90       	lpm	r0, Z+
      6e:	0d 92       	st	X+, r0
      70:	aa 3b       	cpi	r26, 0xBA	; 186
      72:	b1 07       	cpc	r27, r17
      74:	d9 f7       	brne	.-10     	; 0x6c <__do_copy_data+0xc>

00000076 <__do_clear_bss>:
      76:	24 e0       	ldi	r18, 0x04	; 4
      78:	aa eb       	ldi	r26, 0xBA	; 186
      7a:	b3 e0       	ldi	r27, 0x03	; 3
      7c:	01 c0       	rjmp	.+2      	; 0x80 <.do_clear_bss_start>

0000007e <.do_clear_bss_loop>:
      7e:	1d 92       	st	X+, r1

00000080 <.do_clear_bss_start>:
      80:	af 3b       	cpi	r26, 0xBF	; 191
      82:	b2 07       	cpc	r27, r18
      84:	e1 f7       	brne	.-8      	; 0x7e <.do_clear_bss_loop>
      86:	0e 94 40 0e 	call	0x1c80	; 0x1c80 <main>
      8a:	0c 94 91 10 	jmp	0x2122	; 0x2122 <_exit>

0000008e <__bad_interrupt>:
      8e:	0c 94 00 00 	jmp	0	; 0x0 <__vectors>

00000092 <WyslijSPI>:
      92:	8f b9       	out	0x0f, r24	; 15
      94:	77 9b       	sbis	0x0e, 7	; 14
      96:	fe cf       	rjmp	.-4      	; 0x94 <WyslijSPI+0x2>
      98:	08 95       	ret

0000009a <InicjujSPI>:
      9a:	bc 9a       	sbi	0x17, 4	; 23
      9c:	c4 9a       	sbi	0x18, 4	; 24
      9e:	87 b3       	in	r24, 0x17	; 23
      a0:	88 6a       	ori	r24, 0xA8	; 168
      a2:	87 bb       	out	0x17, r24	; 23
      a4:	8d b1       	in	r24, 0x0d	; 13
      a6:	80 65       	ori	r24, 0x50	; 80
      a8:	8d b9       	out	0x0d, r24	; 13
      aa:	68 9a       	sbi	0x0d, 0	; 13
      ac:	08 95       	ret

000000ae <WyslijSPI64>:
      ae:	0f 93       	push	r16
      b0:	1f 93       	push	r17
      b2:	cf 93       	push	r28
      b4:	df 93       	push	r29
      b6:	08 2f       	mov	r16, r24
      b8:	19 2f       	mov	r17, r25
      ba:	c0 e0       	ldi	r28, 0x00	; 0
      bc:	d0 e0       	ldi	r29, 0x00	; 0
      be:	f8 01       	movw	r30, r16
      c0:	81 91       	ld	r24, Z+
      c2:	8f 01       	movw	r16, r30
      c4:	0e 94 49 00 	call	0x92	; 0x92 <WyslijSPI>
      c8:	21 96       	adiw	r28, 0x01	; 1
      ca:	c8 30       	cpi	r28, 0x08	; 8
      cc:	d1 05       	cpc	r29, r1
      ce:	b9 f7       	brne	.-18     	; 0xbe <WyslijSPI64+0x10>
      d0:	c3 9a       	sbi	0x18, 3	; 24
      d2:	c3 98       	cbi	0x18, 3	; 24
      d4:	df 91       	pop	r29
      d6:	cf 91       	pop	r28
      d8:	1f 91       	pop	r17
      da:	0f 91       	pop	r16
      dc:	08 95       	ret

000000de <InicjujIO>:
      de:	8f ef       	ldi	r24, 0xFF	; 255
      e0:	84 bb       	out	0x14, r24	; 20
      e2:	85 b3       	in	r24, 0x15	; 21
      e4:	15 ba       	out	0x15, r1	; 21
      e6:	81 b3       	in	r24, 0x11	; 17
      e8:	80 6c       	ori	r24, 0xC0	; 192
      ea:	81 bb       	out	0x11, r24	; 17
      ec:	08 95       	ret

000000ee <WyswietlKostke>:
      ee:	af 98       	cbi	0x15, 7	; 21
      f0:	8d e9       	ldi	r24, 0x9D	; 157
      f2:	90 e0       	ldi	r25, 0x00	; 0
      f4:	0e 94 57 00 	call	0xae	; 0xae <WyslijSPI64>
      f8:	a8 9a       	sbi	0x15, 0	; 21
      fa:	87 ec       	ldi	r24, 0xC7	; 199
      fc:	90 e0       	ldi	r25, 0x00	; 0
      fe:	01 97       	sbiw	r24, 0x01	; 1
     100:	f1 f7       	brne	.-4      	; 0xfe <WyswietlKostke+0x10>
     102:	00 c0       	rjmp	.+0      	; 0x104 <WyswietlKostke+0x16>
     104:	00 00       	nop
     106:	a8 98       	cbi	0x15, 0	; 21
     108:	85 e9       	ldi	r24, 0x95	; 149
     10a:	90 e0       	ldi	r25, 0x00	; 0
     10c:	0e 94 57 00 	call	0xae	; 0xae <WyslijSPI64>
     110:	a9 9a       	sbi	0x15, 1	; 21
     112:	87 ec       	ldi	r24, 0xC7	; 199
     114:	90 e0       	ldi	r25, 0x00	; 0
     116:	01 97       	sbiw	r24, 0x01	; 1
     118:	f1 f7       	brne	.-4      	; 0x116 <WyswietlKostke+0x28>
     11a:	00 c0       	rjmp	.+0      	; 0x11c <WyswietlKostke+0x2e>
     11c:	00 00       	nop
     11e:	a9 98       	cbi	0x15, 1	; 21
     120:	8d e8       	ldi	r24, 0x8D	; 141
     122:	90 e0       	ldi	r25, 0x00	; 0
     124:	0e 94 57 00 	call	0xae	; 0xae <WyslijSPI64>
     128:	aa 9a       	sbi	0x15, 2	; 21
     12a:	87 ec       	ldi	r24, 0xC7	; 199
     12c:	90 e0       	ldi	r25, 0x00	; 0
     12e:	01 97       	sbiw	r24, 0x01	; 1
     130:	f1 f7       	brne	.-4      	; 0x12e <WyswietlKostke+0x40>
     132:	00 c0       	rjmp	.+0      	; 0x134 <WyswietlKostke+0x46>
     134:	00 00       	nop
     136:	aa 98       	cbi	0x15, 2	; 21
     138:	85 e8       	ldi	r24, 0x85	; 133
     13a:	90 e0       	ldi	r25, 0x00	; 0
     13c:	0e 94 57 00 	call	0xae	; 0xae <WyslijSPI64>
     140:	ab 9a       	sbi	0x15, 3	; 21
     142:	87 ec       	ldi	r24, 0xC7	; 199
     144:	90 e0       	ldi	r25, 0x00	; 0
     146:	01 97       	sbiw	r24, 0x01	; 1
     148:	f1 f7       	brne	.-4      	; 0x146 <WyswietlKostke+0x58>
     14a:	00 c0       	rjmp	.+0      	; 0x14c <WyswietlKostke+0x5e>
     14c:	00 00       	nop
     14e:	ab 98       	cbi	0x15, 3	; 21
     150:	8d e7       	ldi	r24, 0x7D	; 125
     152:	90 e0       	ldi	r25, 0x00	; 0
     154:	0e 94 57 00 	call	0xae	; 0xae <WyslijSPI64>
     158:	ac 9a       	sbi	0x15, 4	; 21
     15a:	87 ec       	ldi	r24, 0xC7	; 199
     15c:	90 e0       	ldi	r25, 0x00	; 0
     15e:	01 97       	sbiw	r24, 0x01	; 1
     160:	f1 f7       	brne	.-4      	; 0x15e <WyswietlKostke+0x70>
     162:	00 c0       	rjmp	.+0      	; 0x164 <WyswietlKostke+0x76>
     164:	00 00       	nop
     166:	ac 98       	cbi	0x15, 4	; 21
     168:	85 e7       	ldi	r24, 0x75	; 117
     16a:	90 e0       	ldi	r25, 0x00	; 0
     16c:	0e 94 57 00 	call	0xae	; 0xae <WyslijSPI64>
     170:	ad 9a       	sbi	0x15, 5	; 21
     172:	87 ec       	ldi	r24, 0xC7	; 199
     174:	90 e0       	ldi	r25, 0x00	; 0
     176:	01 97       	sbiw	r24, 0x01	; 1
     178:	f1 f7       	brne	.-4      	; 0x176 <WyswietlKostke+0x88>
     17a:	00 c0       	rjmp	.+0      	; 0x17c <WyswietlKostke+0x8e>
     17c:	00 00       	nop
     17e:	ad 98       	cbi	0x15, 5	; 21
     180:	8d e6       	ldi	r24, 0x6D	; 109
     182:	90 e0       	ldi	r25, 0x00	; 0
     184:	0e 94 57 00 	call	0xae	; 0xae <WyslijSPI64>
     188:	ae 9a       	sbi	0x15, 6	; 21
     18a:	87 ec       	ldi	r24, 0xC7	; 199
     18c:	90 e0       	ldi	r25, 0x00	; 0
     18e:	01 97       	sbiw	r24, 0x01	; 1
     190:	f1 f7       	brne	.-4      	; 0x18e <WyswietlKostke+0xa0>
     192:	00 c0       	rjmp	.+0      	; 0x194 <WyswietlKostke+0xa6>
     194:	00 00       	nop
     196:	ae 98       	cbi	0x15, 6	; 21
     198:	85 e6       	ldi	r24, 0x65	; 101
     19a:	90 e0       	ldi	r25, 0x00	; 0
     19c:	0e 94 57 00 	call	0xae	; 0xae <WyslijSPI64>
     1a0:	af 9a       	sbi	0x15, 7	; 21
     1a2:	87 ec       	ldi	r24, 0xC7	; 199
     1a4:	90 e0       	ldi	r25, 0x00	; 0
     1a6:	01 97       	sbiw	r24, 0x01	; 1
     1a8:	f1 f7       	brne	.-4      	; 0x1a6 <WyswietlKostke+0xb8>
     1aa:	00 c0       	rjmp	.+0      	; 0x1ac <WyswietlKostke+0xbe>
     1ac:	00 00       	nop
     1ae:	08 95       	ret

000001b0 <WyswietlKlatke>:
     1b0:	0f 93       	push	r16
     1b2:	1f 93       	push	r17
     1b4:	cf 93       	push	r28
     1b6:	df 93       	push	r29
     1b8:	1d bc       	out	0x2d, r1	; 45
     1ba:	1c bc       	out	0x2c, r1	; 44
     1bc:	cc b5       	in	r28, 0x2c	; 44
     1be:	dd b5       	in	r29, 0x2d	; 45
     1c0:	2f e6       	ldi	r18, 0x6F	; 111
     1c2:	32 e1       	ldi	r19, 0x12	; 18
     1c4:	43 e8       	ldi	r20, 0x83	; 131
     1c6:	5d e3       	ldi	r21, 0x3D	; 61
     1c8:	0e 94 84 0e 	call	0x1d08	; 0x1d08 <__divsf3>
     1cc:	0e 94 ec 0e 	call	0x1dd8	; 0x1dd8 <__fixsfsi>
     1d0:	8b 01       	movw	r16, r22
     1d2:	c6 17       	cp	r28, r22
     1d4:	d7 07       	cpc	r29, r23
     1d6:	38 f4       	brcc	.+14     	; 0x1e6 <WyswietlKlatke+0x36>
     1d8:	0e 94 77 00 	call	0xee	; 0xee <WyswietlKostke>
     1dc:	8c b5       	in	r24, 0x2c	; 44
     1de:	9d b5       	in	r25, 0x2d	; 45
     1e0:	80 17       	cp	r24, r16
     1e2:	91 07       	cpc	r25, r17
     1e4:	c8 f3       	brcs	.-14     	; 0x1d8 <WyswietlKlatke+0x28>
     1e6:	df 91       	pop	r29
     1e8:	cf 91       	pop	r28
     1ea:	1f 91       	pop	r17
     1ec:	0f 91       	pop	r16
     1ee:	08 95       	ret

000001f0 <InicjujUSART>:
     1f0:	10 bc       	out	0x20, r1	; 32
     1f2:	82 e2       	ldi	r24, 0x22	; 34
     1f4:	89 b9       	out	0x09, r24	; 9
     1f6:	59 9a       	sbi	0x0b, 1	; 11
     1f8:	80 b5       	in	r24, 0x20	; 32
     1fa:	86 68       	ori	r24, 0x86	; 134
     1fc:	80 bd       	out	0x20, r24	; 32
     1fe:	8a b1       	in	r24, 0x0a	; 10
     200:	88 69       	ori	r24, 0x98	; 152
     202:	8a b9       	out	0x0a, r24	; 10
     204:	08 95       	ret

00000206 <__vector_13>:
     206:	1f 92       	push	r1
     208:	0f 92       	push	r0
     20a:	0f b6       	in	r0, 0x3f	; 63
     20c:	0f 92       	push	r0
     20e:	11 24       	eor	r1, r1
     210:	8f 93       	push	r24
     212:	8c b1       	in	r24, 0x0c	; 12
     214:	80 93 be 03 	sts	0x03BE, r24
     218:	80 91 be 03 	lds	r24, 0x03BE
     21c:	86 30       	cpi	r24, 0x06	; 6
     21e:	71 f1       	breq	.+92     	; 0x27c <__vector_13+0x76>
     220:	68 f4       	brcc	.+26     	; 0x23c <__vector_13+0x36>
     222:	83 30       	cpi	r24, 0x03	; 3
     224:	f9 f0       	breq	.+62     	; 0x264 <__vector_13+0x5e>
     226:	28 f4       	brcc	.+10     	; 0x232 <__vector_13+0x2c>
     228:	81 30       	cpi	r24, 0x01	; 1
     22a:	a9 f0       	breq	.+42     	; 0x256 <__vector_13+0x50>
     22c:	82 30       	cpi	r24, 0x02	; 2
     22e:	f1 f5       	brne	.+124    	; 0x2ac <__vector_13+0xa6>
     230:	15 c0       	rjmp	.+42     	; 0x25c <__vector_13+0x56>
     232:	84 30       	cpi	r24, 0x04	; 4
     234:	d9 f0       	breq	.+54     	; 0x26c <__vector_13+0x66>
     236:	85 30       	cpi	r24, 0x05	; 5
     238:	c9 f5       	brne	.+114    	; 0x2ac <__vector_13+0xa6>
     23a:	1c c0       	rjmp	.+56     	; 0x274 <__vector_13+0x6e>
     23c:	8c 32       	cpi	r24, 0x2C	; 44
     23e:	71 f1       	breq	.+92     	; 0x29c <__vector_13+0x96>
     240:	28 f4       	brcc	.+10     	; 0x24c <__vector_13+0x46>
     242:	87 30       	cpi	r24, 0x07	; 7
     244:	f9 f0       	breq	.+62     	; 0x284 <__vector_13+0x7e>
     246:	86 31       	cpi	r24, 0x16	; 22
     248:	89 f5       	brne	.+98     	; 0x2ac <__vector_13+0xa6>
     24a:	24 c0       	rjmp	.+72     	; 0x294 <__vector_13+0x8e>
     24c:	82 34       	cpi	r24, 0x42	; 66
     24e:	51 f1       	breq	.+84     	; 0x2a4 <__vector_13+0x9e>
     250:	88 35       	cpi	r24, 0x58	; 88
     252:	61 f5       	brne	.+88     	; 0x2ac <__vector_13+0xa6>
     254:	1b c0       	rjmp	.+54     	; 0x28c <__vector_13+0x86>
     256:	10 92 bf 03 	sts	0x03BF, r1
     25a:	2a c0       	rjmp	.+84     	; 0x2b0 <__vector_13+0xaa>
     25c:	81 e0       	ldi	r24, 0x01	; 1
     25e:	80 93 bf 03 	sts	0x03BF, r24
     262:	26 c0       	rjmp	.+76     	; 0x2b0 <__vector_13+0xaa>
     264:	82 e0       	ldi	r24, 0x02	; 2
     266:	80 93 bf 03 	sts	0x03BF, r24
     26a:	22 c0       	rjmp	.+68     	; 0x2b0 <__vector_13+0xaa>
     26c:	83 e0       	ldi	r24, 0x03	; 3
     26e:	80 93 bf 03 	sts	0x03BF, r24
     272:	1e c0       	rjmp	.+60     	; 0x2b0 <__vector_13+0xaa>
     274:	84 e0       	ldi	r24, 0x04	; 4
     276:	80 93 bf 03 	sts	0x03BF, r24
     27a:	1a c0       	rjmp	.+52     	; 0x2b0 <__vector_13+0xaa>
     27c:	85 e0       	ldi	r24, 0x05	; 5
     27e:	80 93 bf 03 	sts	0x03BF, r24
     282:	16 c0       	rjmp	.+44     	; 0x2b0 <__vector_13+0xaa>
     284:	86 e0       	ldi	r24, 0x06	; 6
     286:	80 93 bf 03 	sts	0x03BF, r24
     28a:	12 c0       	rjmp	.+36     	; 0x2b0 <__vector_13+0xaa>
     28c:	82 e0       	ldi	r24, 0x02	; 2
     28e:	80 93 a5 00 	sts	0x00A5, r24
     292:	0e c0       	rjmp	.+28     	; 0x2b0 <__vector_13+0xaa>
     294:	83 e0       	ldi	r24, 0x03	; 3
     296:	80 93 a5 00 	sts	0x00A5, r24
     29a:	0a c0       	rjmp	.+20     	; 0x2b0 <__vector_13+0xaa>
     29c:	84 e0       	ldi	r24, 0x04	; 4
     29e:	80 93 a5 00 	sts	0x00A5, r24
     2a2:	06 c0       	rjmp	.+12     	; 0x2b0 <__vector_13+0xaa>
     2a4:	85 e0       	ldi	r24, 0x05	; 5
     2a6:	80 93 a5 00 	sts	0x00A5, r24
     2aa:	02 c0       	rjmp	.+4      	; 0x2b0 <__vector_13+0xaa>
     2ac:	10 92 bf 03 	sts	0x03BF, r1
     2b0:	80 91 be 03 	lds	r24, 0x03BE
     2b4:	80 93 bb 03 	sts	0x03BB, r24
     2b8:	80 91 ba 03 	lds	r24, 0x03BA
     2bc:	8f 5f       	subi	r24, 0xFF	; 255
     2be:	80 93 ba 03 	sts	0x03BA, r24
     2c2:	8f 91       	pop	r24
     2c4:	0f 90       	pop	r0
     2c6:	0f be       	out	0x3f, r0	; 63
     2c8:	0f 90       	pop	r0
     2ca:	1f 90       	pop	r1
     2cc:	18 95       	reti

000002ce <InicjujTimer>:
     2ce:	89 b7       	in	r24, 0x39	; 57
     2d0:	85 60       	ori	r24, 0x05	; 5
     2d2:	89 bf       	out	0x39, r24	; 57
     2d4:	85 e0       	ldi	r24, 0x05	; 5
     2d6:	8e bd       	out	0x2e, r24	; 46
     2d8:	83 bf       	out	0x33, r24	; 51
     2da:	08 95       	ret

000002dc <__vector_9>:
     2dc:	1f 92       	push	r1
     2de:	0f 92       	push	r0
     2e0:	0f b6       	in	r0, 0x3f	; 63
     2e2:	0f 92       	push	r0
     2e4:	11 24       	eor	r1, r1
     2e6:	8f 93       	push	r24
     2e8:	82 b3       	in	r24, 0x12	; 18
     2ea:	80 58       	subi	r24, 0x80	; 128
     2ec:	82 bb       	out	0x12, r24	; 18
     2ee:	8f 91       	pop	r24
     2f0:	0f 90       	pop	r0
     2f2:	0f be       	out	0x3f, r0	; 63
     2f4:	0f 90       	pop	r0
     2f6:	1f 90       	pop	r1
     2f8:	18 95       	reti

000002fa <__vector_11>:
     2fa:	1f 92       	push	r1
     2fc:	0f 92       	push	r0
     2fe:	0f b6       	in	r0, 0x3f	; 63
     300:	0f 92       	push	r0
     302:	11 24       	eor	r1, r1
     304:	8f 93       	push	r24
     306:	9f 93       	push	r25
     308:	92 b3       	in	r25, 0x12	; 18
     30a:	80 e4       	ldi	r24, 0x40	; 64
     30c:	89 27       	eor	r24, r25
     30e:	82 bb       	out	0x12, r24	; 18
     310:	9f 91       	pop	r25
     312:	8f 91       	pop	r24
     314:	0f 90       	pop	r0
     316:	0f be       	out	0x3f, r0	; 63
     318:	0f 90       	pop	r0
     31a:	1f 90       	pop	r1
     31c:	18 95       	reti

0000031e <Miganie>:
     31e:	2f 92       	push	r2
     320:	3f 92       	push	r3
     322:	4f 92       	push	r4
     324:	5f 92       	push	r5
     326:	6f 92       	push	r6
     328:	7f 92       	push	r7
     32a:	8f 92       	push	r8
     32c:	9f 92       	push	r9
     32e:	af 92       	push	r10
     330:	bf 92       	push	r11
     332:	cf 92       	push	r12
     334:	df 92       	push	r13
     336:	ef 92       	push	r14
     338:	ff 92       	push	r15
     33a:	1f 93       	push	r17
     33c:	cf 93       	push	r28
     33e:	df 93       	push	r29
     340:	cd b7       	in	r28, 0x3d	; 61
     342:	de b7       	in	r29, 0x3e	; 62
     344:	2c 97       	sbiw	r28, 0x0c	; 12
     346:	0f b6       	in	r0, 0x3f	; 63
     348:	f8 94       	cli
     34a:	de bf       	out	0x3e, r29	; 62
     34c:	0f be       	out	0x3f, r0	; 63
     34e:	cd bf       	out	0x3d, r28	; 61
     350:	80 91 bf 03 	lds	r24, 0x03BF
     354:	88 23       	and	r24, r24
     356:	09 f4       	brne	.+2      	; 0x35a <Miganie+0x3c>
     358:	56 c0       	rjmp	.+172    	; 0x406 <Miganie+0xe8>
     35a:	8e c0       	rjmp	.+284    	; 0x478 <Miganie+0x15a>
     35c:	eb 85       	ldd	r30, Y+11	; 0x0b
     35e:	fc 85       	ldd	r31, Y+12	; 0x0c
     360:	11 92       	st	Z+, r1
     362:	fc 87       	std	Y+12, r31	; 0x0c
     364:	eb 87       	std	Y+11, r30	; 0x0b
     366:	1d 92       	st	X+, r1
     368:	ef 81       	ldd	r30, Y+7	; 0x07
     36a:	f8 85       	ldd	r31, Y+8	; 0x08
     36c:	11 92       	st	Z+, r1
     36e:	f8 87       	std	Y+8, r31	; 0x08
     370:	ef 83       	std	Y+7, r30	; 0x07
     372:	fa 01       	movw	r30, r20
     374:	11 92       	st	Z+, r1
     376:	af 01       	movw	r20, r30
     378:	fb 01       	movw	r30, r22
     37a:	11 92       	st	Z+, r1
     37c:	bf 01       	movw	r22, r30
     37e:	f7 01       	movw	r30, r14
     380:	11 92       	st	Z+, r1
     382:	7f 01       	movw	r14, r30
     384:	f6 01       	movw	r30, r12
     386:	11 92       	st	Z+, r1
     388:	6f 01       	movw	r12, r30
     38a:	f5 01       	movw	r30, r10
     38c:	11 92       	st	Z+, r1
     38e:	5f 01       	movw	r10, r30
     390:	01 96       	adiw	r24, 0x01	; 1
     392:	88 30       	cpi	r24, 0x08	; 8
     394:	91 05       	cpc	r25, r1
     396:	11 f7       	brne	.-60     	; 0x35c <Miganie+0x3e>
     398:	3a 87       	std	Y+10, r19	; 0x0a
     39a:	29 87       	std	Y+9, r18	; 0x09
     39c:	60 e0       	ldi	r22, 0x00	; 0
     39e:	70 e0       	ldi	r23, 0x00	; 0
     3a0:	8a ef       	ldi	r24, 0xFA	; 250
     3a2:	93 e4       	ldi	r25, 0x43	; 67
     3a4:	0e 94 d8 00 	call	0x1b0	; 0x1b0 <WyswietlKlatke>
     3a8:	80 e0       	ldi	r24, 0x00	; 0
     3aa:	90 e0       	ldi	r25, 0x00	; 0
     3ac:	e9 81       	ldd	r30, Y+1	; 0x01
     3ae:	fa 81       	ldd	r31, Y+2	; 0x02
     3b0:	4b 81       	ldd	r20, Y+3	; 0x03
     3b2:	5c 81       	ldd	r21, Y+4	; 0x04
     3b4:	29 85       	ldd	r18, Y+9	; 0x09
     3b6:	3a 85       	ldd	r19, Y+10	; 0x0a
			warstwa7[i]=0;
			warstwa8[i]=0;
		}
		WyswietlKlatke(500);
		
		for(int i=0;i<8;i++)
     3b8:	6d 81       	ldd	r22, Y+5	; 0x05
     3ba:	7e 81       	ldd	r23, Y+6	; 0x06
		{
			warstwa1[i]=255;
     3bc:	da 01       	movw	r26, r20
     3be:	1d 93       	st	X+, r17
     3c0:	ad 01       	movw	r20, r26
			warstwa2[i]=255;
     3c2:	db 01       	movw	r26, r22
     3c4:	1d 93       	st	X+, r17
     3c6:	bd 01       	movw	r22, r26
			warstwa3[i]=255;
     3c8:	11 93       	st	Z+, r17
			warstwa4[i]=255;
     3ca:	d2 01       	movw	r26, r4
     3cc:	1d 93       	st	X+, r17
     3ce:	2d 01       	movw	r4, r26
			warstwa5[i]=255;
     3d0:	d1 01       	movw	r26, r2
     3d2:	1d 93       	st	X+, r17
     3d4:	1d 01       	movw	r2, r26
			warstwa6[i]=255;
     3d6:	d3 01       	movw	r26, r6
     3d8:	1d 93       	st	X+, r17
     3da:	3d 01       	movw	r6, r26
			warstwa7[i]=255;
     3dc:	d4 01       	movw	r26, r8
     3de:	1d 93       	st	X+, r17
     3e0:	4d 01       	movw	r8, r26
			warstwa8[i]=255;
     3e2:	d9 01       	movw	r26, r18
     3e4:	1d 93       	st	X+, r17
     3e6:	9d 01       	movw	r18, r26
			warstwa7[i]=0;
			warstwa8[i]=0;
		}
		WyswietlKlatke(500);
		
		for(int i=0;i<8;i++)
     3e8:	01 96       	adiw	r24, 0x01	; 1
     3ea:	88 30       	cpi	r24, 0x08	; 8
     3ec:	91 05       	cpc	r25, r1
     3ee:	31 f7       	brne	.-52     	; 0x3bc <Miganie+0x9e>
			warstwa5[i]=255;
			warstwa6[i]=255;
			warstwa7[i]=255;
			warstwa8[i]=255;
		}
		WyswietlKlatke(500);
     3f0:	60 e0       	ldi	r22, 0x00	; 0
     3f2:	70 e0       	ldi	r23, 0x00	; 0
     3f4:	8a ef       	ldi	r24, 0xFA	; 250
     3f6:	93 e4       	ldi	r25, 0x43	; 67
     3f8:	0e 94 d8 00 	call	0x1b0	; 0x1b0 <WyswietlKlatke>
	
	
}
void Miganie()
{
	while(stan==OCZEKIWANIE)
     3fc:	80 91 bf 03 	lds	r24, 0x03BF
     400:	88 23       	and	r24, r24
     402:	11 f0       	breq	.+4      	; 0x408 <Miganie+0xea>
     404:	39 c0       	rjmp	.+114    	; 0x478 <Miganie+0x15a>
		}
		WyswietlKlatke(500);
		
		for(int i=0;i<8;i++)
		{
			warstwa1[i]=255;
     406:	1f ef       	ldi	r17, 0xFF	; 255
     408:	ed e9       	ldi	r30, 0x9D	; 157
     40a:	f0 e0       	ldi	r31, 0x00	; 0
     40c:	fc 83       	std	Y+4, r31	; 0x04
     40e:	eb 83       	std	Y+3, r30	; 0x03
     410:	85 e9       	ldi	r24, 0x95	; 149
     412:	90 e0       	ldi	r25, 0x00	; 0
     414:	9e 83       	std	Y+6, r25	; 0x06
     416:	8d 83       	std	Y+5, r24	; 0x05
     418:	ad e8       	ldi	r26, 0x8D	; 141
     41a:	b0 e0       	ldi	r27, 0x00	; 0
     41c:	ba 83       	std	Y+2, r27	; 0x02
     41e:	a9 83       	std	Y+1, r26	; 0x01
     420:	0f 2e       	mov	r0, r31
     422:	f5 e8       	ldi	r31, 0x85	; 133
     424:	4f 2e       	mov	r4, r31
     426:	f0 e0       	ldi	r31, 0x00	; 0
     428:	5f 2e       	mov	r5, r31
     42a:	f0 2d       	mov	r31, r0
     42c:	0f 2e       	mov	r0, r31
     42e:	fd e7       	ldi	r31, 0x7D	; 125
     430:	2f 2e       	mov	r2, r31
     432:	f0 e0       	ldi	r31, 0x00	; 0
     434:	3f 2e       	mov	r3, r31
     436:	f0 2d       	mov	r31, r0
     438:	0f 2e       	mov	r0, r31
     43a:	f5 e7       	ldi	r31, 0x75	; 117
     43c:	6f 2e       	mov	r6, r31
     43e:	f0 e0       	ldi	r31, 0x00	; 0
     440:	7f 2e       	mov	r7, r31
     442:	f0 2d       	mov	r31, r0
     444:	0f 2e       	mov	r0, r31
     446:	fd e6       	ldi	r31, 0x6D	; 109
     448:	8f 2e       	mov	r8, r31
     44a:	f0 e0       	ldi	r31, 0x00	; 0
     44c:	9f 2e       	mov	r9, r31
     44e:	f0 2d       	mov	r31, r0
     450:	e5 e6       	ldi	r30, 0x65	; 101
     452:	f0 e0       	ldi	r31, 0x00	; 0
	
	
	
}
void Miganie()
{
     454:	5f 01       	movw	r10, r30
     456:	64 01       	movw	r12, r8
     458:	73 01       	movw	r14, r6
     45a:	b1 01       	movw	r22, r2
     45c:	a2 01       	movw	r20, r4
     45e:	9d 01       	movw	r18, r26
     460:	dc 01       	movw	r26, r24
     462:	ed e9       	ldi	r30, 0x9D	; 157
     464:	f0 e0       	ldi	r31, 0x00	; 0
     466:	80 e0       	ldi	r24, 0x00	; 0
     468:	90 e0       	ldi	r25, 0x00	; 0
     46a:	fc 87       	std	Y+12, r31	; 0x0c
     46c:	eb 87       	std	Y+11, r30	; 0x0b
     46e:	38 87       	std	Y+8, r19	; 0x08
     470:	2f 83       	std	Y+7, r18	; 0x07
     472:	25 e6       	ldi	r18, 0x65	; 101
     474:	30 e0       	ldi	r19, 0x00	; 0
     476:	72 cf       	rjmp	.-284    	; 0x35c <Miganie+0x3e>
			warstwa7[i]=255;
			warstwa8[i]=255;
		}
		WyswietlKlatke(500);
	}
}
     478:	2c 96       	adiw	r28, 0x0c	; 12
     47a:	0f b6       	in	r0, 0x3f	; 63
     47c:	f8 94       	cli
     47e:	de bf       	out	0x3e, r29	; 62
     480:	0f be       	out	0x3f, r0	; 63
     482:	cd bf       	out	0x3d, r28	; 61
     484:	df 91       	pop	r29
     486:	cf 91       	pop	r28
     488:	1f 91       	pop	r17
     48a:	ff 90       	pop	r15
     48c:	ef 90       	pop	r14
     48e:	df 90       	pop	r13
     490:	cf 90       	pop	r12
     492:	bf 90       	pop	r11
     494:	af 90       	pop	r10
     496:	9f 90       	pop	r9
     498:	8f 90       	pop	r8
     49a:	7f 90       	pop	r7
     49c:	6f 90       	pop	r6
     49e:	5f 90       	pop	r5
     4a0:	4f 90       	pop	r4
     4a2:	3f 90       	pop	r3
     4a4:	2f 90       	pop	r2
     4a6:	08 95       	ret

000004a8 <DiodaBinarnie>:
}
uint8_t DiodaBinarnie(uint8_t x)
{
	
	
	switch(x)
     4a8:	83 30       	cpi	r24, 0x03	; 3
     4aa:	89 f0       	breq	.+34     	; 0x4ce <DiodaBinarnie+0x26>
     4ac:	20 f4       	brcc	.+8      	; 0x4b6 <DiodaBinarnie+0xe>
     4ae:	81 30       	cpi	r24, 0x01	; 1
     4b0:	d1 f0       	breq	.+52     	; 0x4e6 <DiodaBinarnie+0x3e>
     4b2:	58 f4       	brcc	.+22     	; 0x4ca <DiodaBinarnie+0x22>
     4b4:	08 c0       	rjmp	.+16     	; 0x4c6 <DiodaBinarnie+0x1e>
     4b6:	85 30       	cpi	r24, 0x05	; 5
     4b8:	71 f0       	breq	.+28     	; 0x4d6 <DiodaBinarnie+0x2e>
     4ba:	58 f0       	brcs	.+22     	; 0x4d2 <DiodaBinarnie+0x2a>
     4bc:	86 30       	cpi	r24, 0x06	; 6
     4be:	69 f0       	breq	.+26     	; 0x4da <DiodaBinarnie+0x32>
     4c0:	87 30       	cpi	r24, 0x07	; 7
     4c2:	79 f4       	brne	.+30     	; 0x4e2 <DiodaBinarnie+0x3a>
     4c4:	0c c0       	rjmp	.+24     	; 0x4de <DiodaBinarnie+0x36>
	{
	case 0:
	return 0b00000001;
     4c6:	81 e0       	ldi	r24, 0x01	; 1
     4c8:	08 95       	ret
	case 1:
	return 0b00000010;
	case 2:
	return 0b00000100;
     4ca:	84 e0       	ldi	r24, 0x04	; 4
     4cc:	08 95       	ret
	case 3:
	return 0b00001000;
     4ce:	88 e0       	ldi	r24, 0x08	; 8
     4d0:	08 95       	ret
	case 4:
	return 0b00010000;
     4d2:	80 e1       	ldi	r24, 0x10	; 16
     4d4:	08 95       	ret
	case 5:
	return 0b00100000;
     4d6:	80 e2       	ldi	r24, 0x20	; 32
     4d8:	08 95       	ret
	case 6:
	return 0b01000000;
     4da:	80 e4       	ldi	r24, 0x40	; 64
     4dc:	08 95       	ret
	case 7:
	return 0b10000000;
     4de:	80 e8       	ldi	r24, 0x80	; 128
     4e0:	08 95       	ret
	default:
	return 0b00000000;
     4e2:	80 e0       	ldi	r24, 0x00	; 0
     4e4:	08 95       	ret
	switch(x)
	{
	case 0:
	return 0b00000001;
	case 1:
	return 0b00000010;
     4e6:	82 e0       	ldi	r24, 0x02	; 2
	return 0b10000000;
	default:
	return 0b00000000;
	}
	
}
     4e8:	08 95       	ret

000004ea <ZmienDiode>:
		}
		WyswietlKlatke(250);
	}
}
void ZmienDiode(uint8_t x, uint8_t y, uint8_t z,uint8_t stan)
{	
     4ea:	cf 93       	push	r28
     4ec:	df 93       	push	r29
	if(stan==1)
     4ee:	21 30       	cpi	r18, 0x01	; 1
     4f0:	09 f0       	breq	.+2      	; 0x4f4 <ZmienDiode+0xa>
     4f2:	61 c0       	rjmp	.+194    	; 0x5b6 <ZmienDiode+0xcc>
	{
	switch(z)
     4f4:	43 30       	cpi	r20, 0x03	; 3
     4f6:	69 f1       	breq	.+90     	; 0x552 <ZmienDiode+0x68>
     4f8:	20 f4       	brcc	.+8      	; 0x502 <ZmienDiode+0x18>
     4fa:	41 30       	cpi	r20, 0x01	; 1
     4fc:	b1 f0       	breq	.+44     	; 0x52a <ZmienDiode+0x40>
     4fe:	f8 f4       	brcc	.+62     	; 0x53e <ZmienDiode+0x54>
     500:	0a c0       	rjmp	.+20     	; 0x516 <ZmienDiode+0x2c>
     502:	45 30       	cpi	r20, 0x05	; 5
     504:	d1 f1       	breq	.+116    	; 0x57a <ZmienDiode+0x90>
     506:	78 f1       	brcs	.+94     	; 0x566 <ZmienDiode+0x7c>
     508:	46 30       	cpi	r20, 0x06	; 6
     50a:	09 f4       	brne	.+2      	; 0x50e <ZmienDiode+0x24>
     50c:	40 c0       	rjmp	.+128    	; 0x58e <ZmienDiode+0xa4>
     50e:	47 30       	cpi	r20, 0x07	; 7
     510:	09 f0       	breq	.+2      	; 0x514 <ZmienDiode+0x2a>
     512:	51 c0       	rjmp	.+162    	; 0x5b6 <ZmienDiode+0xcc>
     514:	46 c0       	rjmp	.+140    	; 0x5a2 <ZmienDiode+0xb8>
	{
	case 0:
	warstwa1[y]|=DiodaBinarnie(x);
     516:	c6 2f       	mov	r28, r22
     518:	d0 e0       	ldi	r29, 0x00	; 0
     51a:	0e 94 54 02 	call	0x4a8	; 0x4a8 <DiodaBinarnie>
     51e:	c3 56       	subi	r28, 0x63	; 99
     520:	df 4f       	sbci	r29, 0xFF	; 255
     522:	98 81       	ld	r25, Y
     524:	89 2b       	or	r24, r25
     526:	88 83       	st	Y, r24
	break;
     528:	b9 c0       	rjmp	.+370    	; 0x69c <ZmienDiode+0x1b2>
	case 1:
	warstwa2[y]|=DiodaBinarnie(x);
     52a:	c6 2f       	mov	r28, r22
     52c:	d0 e0       	ldi	r29, 0x00	; 0
     52e:	0e 94 54 02 	call	0x4a8	; 0x4a8 <DiodaBinarnie>
     532:	cb 56       	subi	r28, 0x6B	; 107
     534:	df 4f       	sbci	r29, 0xFF	; 255
     536:	98 81       	ld	r25, Y
     538:	89 2b       	or	r24, r25
     53a:	88 83       	st	Y, r24
	break;
     53c:	af c0       	rjmp	.+350    	; 0x69c <ZmienDiode+0x1b2>
	case 2:
	warstwa3[y]|=DiodaBinarnie(x);
     53e:	c6 2f       	mov	r28, r22
     540:	d0 e0       	ldi	r29, 0x00	; 0
     542:	0e 94 54 02 	call	0x4a8	; 0x4a8 <DiodaBinarnie>
     546:	c3 57       	subi	r28, 0x73	; 115
     548:	df 4f       	sbci	r29, 0xFF	; 255
     54a:	98 81       	ld	r25, Y
     54c:	89 2b       	or	r24, r25
     54e:	88 83       	st	Y, r24
	break;
     550:	a5 c0       	rjmp	.+330    	; 0x69c <ZmienDiode+0x1b2>
	case 3:
	warstwa4[y]|=DiodaBinarnie(x);
     552:	c6 2f       	mov	r28, r22
     554:	d0 e0       	ldi	r29, 0x00	; 0
     556:	0e 94 54 02 	call	0x4a8	; 0x4a8 <DiodaBinarnie>
     55a:	cb 57       	subi	r28, 0x7B	; 123
     55c:	df 4f       	sbci	r29, 0xFF	; 255
     55e:	98 81       	ld	r25, Y
     560:	89 2b       	or	r24, r25
     562:	88 83       	st	Y, r24
	break;
     564:	9b c0       	rjmp	.+310    	; 0x69c <ZmienDiode+0x1b2>
	case 4:
	warstwa5[y]|=DiodaBinarnie(x);
     566:	c6 2f       	mov	r28, r22
     568:	d0 e0       	ldi	r29, 0x00	; 0
     56a:	0e 94 54 02 	call	0x4a8	; 0x4a8 <DiodaBinarnie>
     56e:	c3 58       	subi	r28, 0x83	; 131
     570:	df 4f       	sbci	r29, 0xFF	; 255
     572:	98 81       	ld	r25, Y
     574:	89 2b       	or	r24, r25
     576:	88 83       	st	Y, r24
	break;
     578:	91 c0       	rjmp	.+290    	; 0x69c <ZmienDiode+0x1b2>
	case 5:
	warstwa6[y]|=DiodaBinarnie(x);
     57a:	c6 2f       	mov	r28, r22
     57c:	d0 e0       	ldi	r29, 0x00	; 0
     57e:	0e 94 54 02 	call	0x4a8	; 0x4a8 <DiodaBinarnie>
     582:	cb 58       	subi	r28, 0x8B	; 139
     584:	df 4f       	sbci	r29, 0xFF	; 255
     586:	98 81       	ld	r25, Y
     588:	89 2b       	or	r24, r25
     58a:	88 83       	st	Y, r24
	break;
     58c:	87 c0       	rjmp	.+270    	; 0x69c <ZmienDiode+0x1b2>
	case 6:
	warstwa7[y]|=DiodaBinarnie(x);
     58e:	c6 2f       	mov	r28, r22
     590:	d0 e0       	ldi	r29, 0x00	; 0
     592:	0e 94 54 02 	call	0x4a8	; 0x4a8 <DiodaBinarnie>
     596:	c3 59       	subi	r28, 0x93	; 147
     598:	df 4f       	sbci	r29, 0xFF	; 255
     59a:	98 81       	ld	r25, Y
     59c:	89 2b       	or	r24, r25
     59e:	88 83       	st	Y, r24
	break;
     5a0:	7d c0       	rjmp	.+250    	; 0x69c <ZmienDiode+0x1b2>
	case 7:
	warstwa8[y]|=DiodaBinarnie(x);
     5a2:	c6 2f       	mov	r28, r22
     5a4:	d0 e0       	ldi	r29, 0x00	; 0
     5a6:	0e 94 54 02 	call	0x4a8	; 0x4a8 <DiodaBinarnie>
     5aa:	cb 59       	subi	r28, 0x9B	; 155
     5ac:	df 4f       	sbci	r29, 0xFF	; 255
     5ae:	98 81       	ld	r25, Y
     5b0:	89 2b       	or	r24, r25
     5b2:	88 83       	st	Y, r24
	break;
     5b4:	73 c0       	rjmp	.+230    	; 0x69c <ZmienDiode+0x1b2>
	}
	}
	if(stan==0)
     5b6:	21 11       	cpse	r18, r1
     5b8:	71 c0       	rjmp	.+226    	; 0x69c <ZmienDiode+0x1b2>
	{
		switch(z)
     5ba:	43 30       	cpi	r20, 0x03	; 3
     5bc:	a1 f1       	breq	.+104    	; 0x626 <ZmienDiode+0x13c>
     5be:	20 f4       	brcc	.+8      	; 0x5c8 <ZmienDiode+0xde>
     5c0:	41 30       	cpi	r20, 0x01	; 1
     5c2:	c9 f0       	breq	.+50     	; 0x5f6 <ZmienDiode+0x10c>
     5c4:	20 f5       	brcc	.+72     	; 0x60e <ZmienDiode+0x124>
     5c6:	0b c0       	rjmp	.+22     	; 0x5de <ZmienDiode+0xf4>
     5c8:	45 30       	cpi	r20, 0x05	; 5
     5ca:	09 f4       	brne	.+2      	; 0x5ce <ZmienDiode+0xe4>
     5cc:	44 c0       	rjmp	.+136    	; 0x656 <ZmienDiode+0x16c>
     5ce:	b8 f1       	brcs	.+110    	; 0x63e <ZmienDiode+0x154>
     5d0:	46 30       	cpi	r20, 0x06	; 6
     5d2:	09 f4       	brne	.+2      	; 0x5d6 <ZmienDiode+0xec>
     5d4:	4c c0       	rjmp	.+152    	; 0x66e <ZmienDiode+0x184>
     5d6:	47 30       	cpi	r20, 0x07	; 7
     5d8:	09 f0       	breq	.+2      	; 0x5dc <ZmienDiode+0xf2>
     5da:	60 c0       	rjmp	.+192    	; 0x69c <ZmienDiode+0x1b2>
     5dc:	54 c0       	rjmp	.+168    	; 0x686 <ZmienDiode+0x19c>
		{
		case 0:
		warstwa1[y]&=~DiodaBinarnie( x);
     5de:	c6 2f       	mov	r28, r22
     5e0:	d0 e0       	ldi	r29, 0x00	; 0
     5e2:	0e 94 54 02 	call	0x4a8	; 0x4a8 <DiodaBinarnie>
     5e6:	fe 01       	movw	r30, r28
     5e8:	e3 56       	subi	r30, 0x63	; 99
     5ea:	ff 4f       	sbci	r31, 0xFF	; 255
     5ec:	80 95       	com	r24
     5ee:	90 81       	ld	r25, Z
     5f0:	89 23       	and	r24, r25
     5f2:	80 83       	st	Z, r24
		break;
     5f4:	53 c0       	rjmp	.+166    	; 0x69c <ZmienDiode+0x1b2>
		case 1:
		warstwa2[y]&=~DiodaBinarnie( x);
     5f6:	c6 2f       	mov	r28, r22
     5f8:	d0 e0       	ldi	r29, 0x00	; 0
     5fa:	0e 94 54 02 	call	0x4a8	; 0x4a8 <DiodaBinarnie>
     5fe:	fe 01       	movw	r30, r28
     600:	eb 56       	subi	r30, 0x6B	; 107
     602:	ff 4f       	sbci	r31, 0xFF	; 255
     604:	80 95       	com	r24
     606:	90 81       	ld	r25, Z
     608:	89 23       	and	r24, r25
     60a:	80 83       	st	Z, r24
		break;
     60c:	47 c0       	rjmp	.+142    	; 0x69c <ZmienDiode+0x1b2>
		case 2:
		warstwa3[y]&=~DiodaBinarnie( x);
     60e:	c6 2f       	mov	r28, r22
     610:	d0 e0       	ldi	r29, 0x00	; 0
     612:	0e 94 54 02 	call	0x4a8	; 0x4a8 <DiodaBinarnie>
     616:	fe 01       	movw	r30, r28
     618:	e3 57       	subi	r30, 0x73	; 115
     61a:	ff 4f       	sbci	r31, 0xFF	; 255
     61c:	80 95       	com	r24
     61e:	90 81       	ld	r25, Z
     620:	89 23       	and	r24, r25
     622:	80 83       	st	Z, r24
		break;
     624:	3b c0       	rjmp	.+118    	; 0x69c <ZmienDiode+0x1b2>
		case 3:
		warstwa4[y]&=~DiodaBinarnie( x);
     626:	c6 2f       	mov	r28, r22
     628:	d0 e0       	ldi	r29, 0x00	; 0
     62a:	0e 94 54 02 	call	0x4a8	; 0x4a8 <DiodaBinarnie>
     62e:	fe 01       	movw	r30, r28
     630:	eb 57       	subi	r30, 0x7B	; 123
     632:	ff 4f       	sbci	r31, 0xFF	; 255
     634:	80 95       	com	r24
     636:	90 81       	ld	r25, Z
     638:	89 23       	and	r24, r25
     63a:	80 83       	st	Z, r24
		break;
     63c:	2f c0       	rjmp	.+94     	; 0x69c <ZmienDiode+0x1b2>
		case 4:
		warstwa5[y]&=~DiodaBinarnie( x);
     63e:	c6 2f       	mov	r28, r22
     640:	d0 e0       	ldi	r29, 0x00	; 0
     642:	0e 94 54 02 	call	0x4a8	; 0x4a8 <DiodaBinarnie>
     646:	fe 01       	movw	r30, r28
     648:	e3 58       	subi	r30, 0x83	; 131
     64a:	ff 4f       	sbci	r31, 0xFF	; 255
     64c:	80 95       	com	r24
     64e:	90 81       	ld	r25, Z
     650:	89 23       	and	r24, r25
     652:	80 83       	st	Z, r24
		break;
     654:	23 c0       	rjmp	.+70     	; 0x69c <ZmienDiode+0x1b2>
		case 5:
		warstwa6[y]&=~DiodaBinarnie( x);
     656:	c6 2f       	mov	r28, r22
     658:	d0 e0       	ldi	r29, 0x00	; 0
     65a:	0e 94 54 02 	call	0x4a8	; 0x4a8 <DiodaBinarnie>
     65e:	fe 01       	movw	r30, r28
     660:	eb 58       	subi	r30, 0x8B	; 139
     662:	ff 4f       	sbci	r31, 0xFF	; 255
     664:	80 95       	com	r24
     666:	90 81       	ld	r25, Z
     668:	89 23       	and	r24, r25
     66a:	80 83       	st	Z, r24
		break;
     66c:	17 c0       	rjmp	.+46     	; 0x69c <ZmienDiode+0x1b2>
		case 6:
		warstwa7[y]&=~DiodaBinarnie( x);
     66e:	c6 2f       	mov	r28, r22
     670:	d0 e0       	ldi	r29, 0x00	; 0
     672:	0e 94 54 02 	call	0x4a8	; 0x4a8 <DiodaBinarnie>
     676:	fe 01       	movw	r30, r28
     678:	e3 59       	subi	r30, 0x93	; 147
     67a:	ff 4f       	sbci	r31, 0xFF	; 255
     67c:	80 95       	com	r24
     67e:	90 81       	ld	r25, Z
     680:	89 23       	and	r24, r25
     682:	80 83       	st	Z, r24
		break;
     684:	0b c0       	rjmp	.+22     	; 0x69c <ZmienDiode+0x1b2>
		case 7:
		warstwa8[y]&=~DiodaBinarnie( x);
     686:	c6 2f       	mov	r28, r22
     688:	d0 e0       	ldi	r29, 0x00	; 0
     68a:	0e 94 54 02 	call	0x4a8	; 0x4a8 <DiodaBinarnie>
     68e:	fe 01       	movw	r30, r28
     690:	eb 59       	subi	r30, 0x9B	; 155
     692:	ff 4f       	sbci	r31, 0xFF	; 255
     694:	80 95       	com	r24
     696:	90 81       	ld	r25, Z
     698:	89 23       	and	r24, r25
     69a:	80 83       	st	Z, r24
		break;
		}
	}
}
     69c:	df 91       	pop	r29
     69e:	cf 91       	pop	r28
     6a0:	08 95       	ret

000006a2 <ZapalXY>:
		
	}
	
}
void ZapalXY(uint8_t z)
{
     6a2:	0f 93       	push	r16
     6a4:	1f 93       	push	r17
     6a6:	cf 93       	push	r28
     6a8:	df 93       	push	r29
     6aa:	d8 2f       	mov	r29, r24
	for(uint8_t x=0;x<8;x++)//zapal plaszczyzne xy
     6ac:	10 e0       	ldi	r17, 0x00	; 0
		
	}
	
}
void ZapalXY(uint8_t z)
{
     6ae:	00 e0       	ldi	r16, 0x00	; 0
     6b0:	0c c0       	rjmp	.+24     	; 0x6ca <ZapalXY+0x28>
	for(uint8_t x=0;x<8;x++)//zapal plaszczyzne xy
	{
		for(uint8_t y=0 ;y<8 ;y++)
		{
			ZmienDiode(x,y,z,1);
     6b2:	21 e0       	ldi	r18, 0x01	; 1
     6b4:	4d 2f       	mov	r20, r29
     6b6:	6c 2f       	mov	r22, r28
     6b8:	81 2f       	mov	r24, r17
     6ba:	0e 94 75 02 	call	0x4ea	; 0x4ea <ZmienDiode>
}
void ZapalXY(uint8_t z)
{
	for(uint8_t x=0;x<8;x++)//zapal plaszczyzne xy
	{
		for(uint8_t y=0 ;y<8 ;y++)
     6be:	cf 5f       	subi	r28, 0xFF	; 255
     6c0:	c8 30       	cpi	r28, 0x08	; 8
     6c2:	b9 f7       	brne	.-18     	; 0x6b2 <ZapalXY+0x10>
	}
	
}
void ZapalXY(uint8_t z)
{
	for(uint8_t x=0;x<8;x++)//zapal plaszczyzne xy
     6c4:	1f 5f       	subi	r17, 0xFF	; 255
     6c6:	18 30       	cpi	r17, 0x08	; 8
     6c8:	11 f0       	breq	.+4      	; 0x6ce <ZapalXY+0x2c>
		
	}
	
}
void ZapalXY(uint8_t z)
{
     6ca:	c0 2f       	mov	r28, r16
     6cc:	f2 cf       	rjmp	.-28     	; 0x6b2 <ZapalXY+0x10>
		for(uint8_t y=0 ;y<8 ;y++)
		{
			ZmienDiode(x,y,z,1);
		}
	}
	WyswietlKlatke(60);
     6ce:	60 e0       	ldi	r22, 0x00	; 0
     6d0:	70 e0       	ldi	r23, 0x00	; 0
     6d2:	80 e7       	ldi	r24, 0x70	; 112
     6d4:	92 e4       	ldi	r25, 0x42	; 66
     6d6:	0e 94 d8 00 	call	0x1b0	; 0x1b0 <WyswietlKlatke>
	for(uint8_t x=0;x<8;x++)//zgas plaszczyzne xy
     6da:	10 e0       	ldi	r17, 0x00	; 0
	}
	
}
void ZapalXY(uint8_t z)
{
	for(uint8_t x=0;x<8;x++)//zapal plaszczyzne xy
     6dc:	00 e0       	ldi	r16, 0x00	; 0
     6de:	0c c0       	rjmp	.+24     	; 0x6f8 <ZapalXY+0x56>
	WyswietlKlatke(60);
	for(uint8_t x=0;x<8;x++)//zgas plaszczyzne xy
	{
		for(uint8_t y=0;y<8;y++)
		{
			ZmienDiode(x,y,z,0);
     6e0:	20 2f       	mov	r18, r16
     6e2:	4d 2f       	mov	r20, r29
     6e4:	6c 2f       	mov	r22, r28
     6e6:	81 2f       	mov	r24, r17
     6e8:	0e 94 75 02 	call	0x4ea	; 0x4ea <ZmienDiode>
		}
	}
	WyswietlKlatke(60);
	for(uint8_t x=0;x<8;x++)//zgas plaszczyzne xy
	{
		for(uint8_t y=0;y<8;y++)
     6ec:	cf 5f       	subi	r28, 0xFF	; 255
     6ee:	c8 30       	cpi	r28, 0x08	; 8
     6f0:	b9 f7       	brne	.-18     	; 0x6e0 <ZapalXY+0x3e>
		{
			ZmienDiode(x,y,z,1);
		}
	}
	WyswietlKlatke(60);
	for(uint8_t x=0;x<8;x++)//zgas plaszczyzne xy
     6f2:	1f 5f       	subi	r17, 0xFF	; 255
     6f4:	18 30       	cpi	r17, 0x08	; 8
     6f6:	11 f0       	breq	.+4      	; 0x6fc <ZapalXY+0x5a>
	}
	
}
void ZapalXY(uint8_t z)
{
	for(uint8_t x=0;x<8;x++)//zapal plaszczyzne xy
     6f8:	c0 2f       	mov	r28, r16
     6fa:	f2 cf       	rjmp	.-28     	; 0x6e0 <ZapalXY+0x3e>
		for(uint8_t y=0;y<8;y++)
		{
			ZmienDiode(x,y,z,0);
		}
	}
}
     6fc:	df 91       	pop	r29
     6fe:	cf 91       	pop	r28
     700:	1f 91       	pop	r17
     702:	0f 91       	pop	r16
     704:	08 95       	ret

00000706 <ZapalXZ>:
void ZapalXZ(uint8_t y)
{
     706:	0f 93       	push	r16
     708:	1f 93       	push	r17
     70a:	cf 93       	push	r28
     70c:	df 93       	push	r29
     70e:	d8 2f       	mov	r29, r24
	for(uint8_t x=0;x<8;x++)//zapal plaszczyzne xz
     710:	10 e0       	ldi	r17, 0x00	; 0
			ZmienDiode(x,y,z,0);
		}
	}
}
void ZapalXZ(uint8_t y)
{
     712:	00 e0       	ldi	r16, 0x00	; 0
     714:	0c c0       	rjmp	.+24     	; 0x72e <ZapalXZ+0x28>
	for(uint8_t x=0;x<8;x++)//zapal plaszczyzne xz
	{
		for(uint8_t z=0;z<8;z++)
		{
			ZmienDiode(x,y,z,1);
     716:	21 e0       	ldi	r18, 0x01	; 1
     718:	4c 2f       	mov	r20, r28
     71a:	6d 2f       	mov	r22, r29
     71c:	81 2f       	mov	r24, r17
     71e:	0e 94 75 02 	call	0x4ea	; 0x4ea <ZmienDiode>
}
void ZapalXZ(uint8_t y)
{
	for(uint8_t x=0;x<8;x++)//zapal plaszczyzne xz
	{
		for(uint8_t z=0;z<8;z++)
     722:	cf 5f       	subi	r28, 0xFF	; 255
     724:	c8 30       	cpi	r28, 0x08	; 8
     726:	b9 f7       	brne	.-18     	; 0x716 <ZapalXZ+0x10>
		}
	}
}
void ZapalXZ(uint8_t y)
{
	for(uint8_t x=0;x<8;x++)//zapal plaszczyzne xz
     728:	1f 5f       	subi	r17, 0xFF	; 255
     72a:	18 30       	cpi	r17, 0x08	; 8
     72c:	11 f0       	breq	.+4      	; 0x732 <ZapalXZ+0x2c>
			ZmienDiode(x,y,z,0);
		}
	}
}
void ZapalXZ(uint8_t y)
{
     72e:	c0 2f       	mov	r28, r16
     730:	f2 cf       	rjmp	.-28     	; 0x716 <ZapalXZ+0x10>
		for(uint8_t z=0;z<8;z++)
		{
			ZmienDiode(x,y,z,1);
		}
	}
	WyswietlKlatke(60);
     732:	60 e0       	ldi	r22, 0x00	; 0
     734:	70 e0       	ldi	r23, 0x00	; 0
     736:	80 e7       	ldi	r24, 0x70	; 112
     738:	92 e4       	ldi	r25, 0x42	; 66
     73a:	0e 94 d8 00 	call	0x1b0	; 0x1b0 <WyswietlKlatke>
	for(uint8_t x=0;x<8;x++)//zgas plaszczyzne xz
     73e:	10 e0       	ldi	r17, 0x00	; 0
		}
	}
}
void ZapalXZ(uint8_t y)
{
	for(uint8_t x=0;x<8;x++)//zapal plaszczyzne xz
     740:	00 e0       	ldi	r16, 0x00	; 0
     742:	0c c0       	rjmp	.+24     	; 0x75c <ZapalXZ+0x56>
	WyswietlKlatke(60);
	for(uint8_t x=0;x<8;x++)//zgas plaszczyzne xz
	{
		for(uint8_t z=0;z<8;z++)
		{
			ZmienDiode(x,y,z,0);
     744:	20 2f       	mov	r18, r16
     746:	4c 2f       	mov	r20, r28
     748:	6d 2f       	mov	r22, r29
     74a:	81 2f       	mov	r24, r17
     74c:	0e 94 75 02 	call	0x4ea	; 0x4ea <ZmienDiode>
		}
	}
	WyswietlKlatke(60);
	for(uint8_t x=0;x<8;x++)//zgas plaszczyzne xz
	{
		for(uint8_t z=0;z<8;z++)
     750:	cf 5f       	subi	r28, 0xFF	; 255
     752:	c8 30       	cpi	r28, 0x08	; 8
     754:	b9 f7       	brne	.-18     	; 0x744 <ZapalXZ+0x3e>
		{
			ZmienDiode(x,y,z,1);
		}
	}
	WyswietlKlatke(60);
	for(uint8_t x=0;x<8;x++)//zgas plaszczyzne xz
     756:	1f 5f       	subi	r17, 0xFF	; 255
     758:	18 30       	cpi	r17, 0x08	; 8
     75a:	11 f0       	breq	.+4      	; 0x760 <ZapalXZ+0x5a>
		}
	}
}
void ZapalXZ(uint8_t y)
{
	for(uint8_t x=0;x<8;x++)//zapal plaszczyzne xz
     75c:	c0 2f       	mov	r28, r16
     75e:	f2 cf       	rjmp	.-28     	; 0x744 <ZapalXZ+0x3e>
		for(uint8_t z=0;z<8;z++)
		{
			ZmienDiode(x,y,z,0);
		}
	}
}
     760:	df 91       	pop	r29
     762:	cf 91       	pop	r28
     764:	1f 91       	pop	r17
     766:	0f 91       	pop	r16
     768:	08 95       	ret

0000076a <ZapalYZ>:
void ZapalYZ(uint8_t x)
{
     76a:	0f 93       	push	r16
     76c:	1f 93       	push	r17
     76e:	cf 93       	push	r28
     770:	df 93       	push	r29
     772:	d8 2f       	mov	r29, r24
	for(uint8_t y=0;y<8;y++)//zapal plaszczyzne yz
     774:	10 e0       	ldi	r17, 0x00	; 0
			ZmienDiode(x,y,z,0);
		}
	}
}
void ZapalYZ(uint8_t x)
{
     776:	00 e0       	ldi	r16, 0x00	; 0
     778:	0c c0       	rjmp	.+24     	; 0x792 <ZapalYZ+0x28>
	for(uint8_t y=0;y<8;y++)//zapal plaszczyzne yz
	{
		for(uint8_t z=0;z<8;z++)
		{
			ZmienDiode(x,y,z,1);
     77a:	21 e0       	ldi	r18, 0x01	; 1
     77c:	4c 2f       	mov	r20, r28
     77e:	61 2f       	mov	r22, r17
     780:	8d 2f       	mov	r24, r29
     782:	0e 94 75 02 	call	0x4ea	; 0x4ea <ZmienDiode>
}
void ZapalYZ(uint8_t x)
{
	for(uint8_t y=0;y<8;y++)//zapal plaszczyzne yz
	{
		for(uint8_t z=0;z<8;z++)
     786:	cf 5f       	subi	r28, 0xFF	; 255
     788:	c8 30       	cpi	r28, 0x08	; 8
     78a:	b9 f7       	brne	.-18     	; 0x77a <ZapalYZ+0x10>
		}
	}
}
void ZapalYZ(uint8_t x)
{
	for(uint8_t y=0;y<8;y++)//zapal plaszczyzne yz
     78c:	1f 5f       	subi	r17, 0xFF	; 255
     78e:	18 30       	cpi	r17, 0x08	; 8
     790:	11 f0       	breq	.+4      	; 0x796 <ZapalYZ+0x2c>
			ZmienDiode(x,y,z,0);
		}
	}
}
void ZapalYZ(uint8_t x)
{
     792:	c0 2f       	mov	r28, r16
     794:	f2 cf       	rjmp	.-28     	; 0x77a <ZapalYZ+0x10>
		for(uint8_t z=0;z<8;z++)
		{
			ZmienDiode(x,y,z,1);
		}
	}
	WyswietlKlatke(60);
     796:	60 e0       	ldi	r22, 0x00	; 0
     798:	70 e0       	ldi	r23, 0x00	; 0
     79a:	80 e7       	ldi	r24, 0x70	; 112
     79c:	92 e4       	ldi	r25, 0x42	; 66
     79e:	0e 94 d8 00 	call	0x1b0	; 0x1b0 <WyswietlKlatke>
	for(uint8_t y=0;y<8;y++)//zgas plaszczyzne yz
     7a2:	10 e0       	ldi	r17, 0x00	; 0
		}
	}
}
void ZapalYZ(uint8_t x)
{
	for(uint8_t y=0;y<8;y++)//zapal plaszczyzne yz
     7a4:	00 e0       	ldi	r16, 0x00	; 0
     7a6:	0c c0       	rjmp	.+24     	; 0x7c0 <ZapalYZ+0x56>
	WyswietlKlatke(60);
	for(uint8_t y=0;y<8;y++)//zgas plaszczyzne yz
	{
		for(uint8_t z=0;z<8;z++)
		{
			ZmienDiode(x,y,z,0);
     7a8:	20 2f       	mov	r18, r16
     7aa:	4c 2f       	mov	r20, r28
     7ac:	61 2f       	mov	r22, r17
     7ae:	8d 2f       	mov	r24, r29
     7b0:	0e 94 75 02 	call	0x4ea	; 0x4ea <ZmienDiode>
		}
	}
	WyswietlKlatke(60);
	for(uint8_t y=0;y<8;y++)//zgas plaszczyzne yz
	{
		for(uint8_t z=0;z<8;z++)
     7b4:	cf 5f       	subi	r28, 0xFF	; 255
     7b6:	c8 30       	cpi	r28, 0x08	; 8
     7b8:	b9 f7       	brne	.-18     	; 0x7a8 <ZapalYZ+0x3e>
		{
			ZmienDiode(x,y,z,1);
		}
	}
	WyswietlKlatke(60);
	for(uint8_t y=0;y<8;y++)//zgas plaszczyzne yz
     7ba:	1f 5f       	subi	r17, 0xFF	; 255
     7bc:	18 30       	cpi	r17, 0x08	; 8
     7be:	11 f0       	breq	.+4      	; 0x7c4 <ZapalYZ+0x5a>
		}
	}
}
void ZapalYZ(uint8_t x)
{
	for(uint8_t y=0;y<8;y++)//zapal plaszczyzne yz
     7c0:	c0 2f       	mov	r28, r16
     7c2:	f2 cf       	rjmp	.-28     	; 0x7a8 <ZapalYZ+0x3e>
		for(uint8_t z=0;z<8;z++)
		{
			ZmienDiode(x,y,z,0);
		}
	}
}
     7c4:	df 91       	pop	r29
     7c6:	cf 91       	pop	r28
     7c8:	1f 91       	pop	r17
     7ca:	0f 91       	pop	r16
     7cc:	08 95       	ret

000007ce <WoopSelektor>:
	}
	
	
}
void WoopSelektor(uint8_t numerWoop, uint8_t stanWoop)
{
     7ce:	8f 92       	push	r8
     7d0:	9f 92       	push	r9
     7d2:	af 92       	push	r10
     7d4:	bf 92       	push	r11
     7d6:	cf 92       	push	r12
     7d8:	df 92       	push	r13
     7da:	ef 92       	push	r14
     7dc:	ff 92       	push	r15
     7de:	0f 93       	push	r16
     7e0:	1f 93       	push	r17
     7e2:	cf 93       	push	r28
     7e4:	df 93       	push	r29
     7e6:	16 2f       	mov	r17, r22
	switch(numerWoop)
     7e8:	83 30       	cpi	r24, 0x03	; 3
     7ea:	09 f4       	brne	.+2      	; 0x7ee <WoopSelektor+0x20>
     7ec:	e2 c0       	rjmp	.+452    	; 0x9b2 <__stack+0x153>
     7ee:	30 f4       	brcc	.+12     	; 0x7fc <WoopSelektor+0x2e>
     7f0:	81 30       	cpi	r24, 0x01	; 1
     7f2:	09 f4       	brne	.+2      	; 0x7f6 <WoopSelektor+0x28>
     7f4:	68 c0       	rjmp	.+208    	; 0x8c6 <__stack+0x67>
     7f6:	08 f0       	brcs	.+2      	; 0x7fa <WoopSelektor+0x2c>
     7f8:	a0 c0       	rjmp	.+320    	; 0x93a <__stack+0xdb>
     7fa:	2e c0       	rjmp	.+92     	; 0x858 <WoopSelektor+0x8a>
     7fc:	85 30       	cpi	r24, 0x05	; 5
     7fe:	09 f4       	brne	.+2      	; 0x802 <WoopSelektor+0x34>
     800:	51 c1       	rjmp	.+674    	; 0xaa4 <__stack+0x245>
     802:	08 f4       	brcc	.+2      	; 0x806 <WoopSelektor+0x38>
     804:	17 c1       	rjmp	.+558    	; 0xa34 <__stack+0x1d5>
     806:	86 30       	cpi	r24, 0x06	; 6
     808:	09 f4       	brne	.+2      	; 0x80c <WoopSelektor+0x3e>
     80a:	89 c1       	rjmp	.+786    	; 0xb1e <__stack+0x2bf>
     80c:	87 30       	cpi	r24, 0x07	; 7
     80e:	09 f0       	breq	.+2      	; 0x812 <WoopSelektor+0x44>
     810:	cc c1       	rjmp	.+920    	; 0xbaa <__stack+0x34b>
     812:	bf c1       	rjmp	.+894    	; 0xb92 <__stack+0x333>
		{
			for(int8_t y=0;y<n;y++)
			{
				for(int8_t z=0;z<n;z++)
				{
					ZmienDiode(x,y,z,stanWoop);
     814:	21 2f       	mov	r18, r17
     816:	4c 2f       	mov	r20, r28
     818:	6d 2f       	mov	r22, r29
     81a:	8f 2d       	mov	r24, r15
     81c:	0e 94 75 02 	call	0x4ea	; 0x4ea <ZmienDiode>
	{
		for(int8_t x=0;x<n;x++)
		{
			for(int8_t y=0;y<n;y++)
			{
				for(int8_t z=0;z<n;z++)
     820:	cf 5f       	subi	r28, 0xFF	; 255
     822:	c0 13       	cpse	r28, r16
     824:	f7 cf       	rjmp	.-18     	; 0x814 <WoopSelektor+0x46>
	//rozpalanie od  0,0,0 do 7,7,7
	for(int8_t n=1;n<=8;n++)
	{
		for(int8_t x=0;x<n;x++)
		{
			for(int8_t y=0;y<n;y++)
     826:	df 5f       	subi	r29, 0xFF	; 255
     828:	d0 17       	cp	r29, r16
     82a:	11 f0       	breq	.+4      	; 0x830 <WoopSelektor+0x62>
	}
	
	
}
void WoopSelektor(uint8_t numerWoop, uint8_t stanWoop)
{
     82c:	ce 2d       	mov	r28, r14
     82e:	f2 cf       	rjmp	.-28     	; 0x814 <WoopSelektor+0x46>
	{
	case 0:
	//rozpalanie od  0,0,0 do 7,7,7
	for(int8_t n=1;n<=8;n++)
	{
		for(int8_t x=0;x<n;x++)
     830:	f3 94       	inc	r15
     832:	f0 12       	cpse	r15, r16
     834:	02 c0       	rjmp	.+4      	; 0x83a <WoopSelektor+0x6c>
     836:	03 c0       	rjmp	.+6      	; 0x83e <WoopSelektor+0x70>
     838:	fc 2c       	mov	r15, r12
	}
	
	
}
void WoopSelektor(uint8_t numerWoop, uint8_t stanWoop)
{
     83a:	dd 2d       	mov	r29, r13
     83c:	f7 cf       	rjmp	.-18     	; 0x82c <WoopSelektor+0x5e>
				{
					ZmienDiode(x,y,z,stanWoop);
				}
			}
		}
		WyswietlKlatke(czasWoopWoop);
     83e:	60 91 64 00 	lds	r22, 0x0064
     842:	70 e0       	ldi	r23, 0x00	; 0
     844:	80 e0       	ldi	r24, 0x00	; 0
     846:	90 e0       	ldi	r25, 0x00	; 0
     848:	0e 94 1d 0f 	call	0x1e3a	; 0x1e3a <__floatunsisf>
     84c:	0e 94 d8 00 	call	0x1b0	; 0x1b0 <WyswietlKlatke>
{
	switch(numerWoop)
	{
	case 0:
	//rozpalanie od  0,0,0 do 7,7,7
	for(int8_t n=1;n<=8;n++)
     850:	0f 5f       	subi	r16, 0xFF	; 255
     852:	09 30       	cpi	r16, 0x09	; 9
     854:	29 f4       	brne	.+10     	; 0x860 <__stack+0x1>
     856:	a9 c1       	rjmp	.+850    	; 0xbaa <__stack+0x34b>
	
	
}
void WoopSelektor(uint8_t numerWoop, uint8_t stanWoop)
{
	switch(numerWoop)
     858:	01 e0       	ldi	r16, 0x01	; 1
	{
	case 0:
	//rozpalanie od  0,0,0 do 7,7,7
	for(int8_t n=1;n<=8;n++)
	{
		for(int8_t x=0;x<n;x++)
     85a:	c1 2c       	mov	r12, r1
	}
	
	
}
void WoopSelektor(uint8_t numerWoop, uint8_t stanWoop)
{
     85c:	dc 2c       	mov	r13, r12
     85e:	ec 2c       	mov	r14, r12
	{
	case 0:
	//rozpalanie od  0,0,0 do 7,7,7
	for(int8_t n=1;n<=8;n++)
	{
		for(int8_t x=0;x<n;x++)
     860:	10 16       	cp	r1, r16
     862:	54 f3       	brlt	.-44     	; 0x838 <WoopSelektor+0x6a>
     864:	ec cf       	rjmp	.-40     	; 0x83e <WoopSelektor+0x70>
		{
			for(int8_t y=7 ;y>=8-n;y--)
			{
				for(int8_t z=7 ;z>=8-n;z--)
				{
					ZmienDiode(x,y,z,stanWoop);
     866:	21 2f       	mov	r18, r17
     868:	4b 2d       	mov	r20, r11
     86a:	6a 2d       	mov	r22, r10
     86c:	89 2d       	mov	r24, r9
     86e:	0e 94 75 02 	call	0x4ea	; 0x4ea <ZmienDiode>
	{
		for(int8_t x=7 ;x>=8-n;x--)
		{
			for(int8_t y=7 ;y>=8-n;y--)
			{
				for(int8_t z=7 ;z>=8-n;z--)
     872:	ba 94       	dec	r11
     874:	2b 2d       	mov	r18, r11
     876:	33 27       	eor	r19, r19
     878:	27 fd       	sbrc	r18, 7
     87a:	30 95       	com	r19
     87c:	2e 15       	cp	r18, r14
     87e:	3f 05       	cpc	r19, r15
     880:	94 f7       	brge	.-28     	; 0x866 <__stack+0x7>
	//rozpalanie od  7,7,7 do 0,0,0
	for(int8_t n=1;n<=8;n++)
	{
		for(int8_t x=7 ;x>=8-n;x--)
		{
			for(int8_t y=7 ;y>=8-n;y--)
     882:	aa 94       	dec	r10
     884:	2a 2d       	mov	r18, r10
     886:	33 27       	eor	r19, r19
     888:	27 fd       	sbrc	r18, 7
     88a:	30 95       	com	r19
     88c:	2e 15       	cp	r18, r14
     88e:	3f 05       	cpc	r19, r15
     890:	14 f0       	brlt	.+4      	; 0x896 <__stack+0x37>
	
	
}
void WoopSelektor(uint8_t numerWoop, uint8_t stanWoop)
{
	switch(numerWoop)
     892:	b0 2e       	mov	r11, r16
     894:	e8 cf       	rjmp	.-48     	; 0x866 <__stack+0x7>
	
	case 1:
	//rozpalanie od  7,7,7 do 0,0,0
	for(int8_t n=1;n<=8;n++)
	{
		for(int8_t x=7 ;x>=8-n;x--)
     896:	9a 94       	dec	r9
     898:	29 2d       	mov	r18, r9
     89a:	33 27       	eor	r19, r19
     89c:	27 fd       	sbrc	r18, 7
     89e:	30 95       	com	r19
     8a0:	2e 15       	cp	r18, r14
     8a2:	3f 05       	cpc	r19, r15
     8a4:	14 f4       	brge	.+4      	; 0x8aa <__stack+0x4b>
     8a6:	03 c0       	rjmp	.+6      	; 0x8ae <__stack+0x4f>
     8a8:	9c 2c       	mov	r9, r12
	
	
}
void WoopSelektor(uint8_t numerWoop, uint8_t stanWoop)
{
	switch(numerWoop)
     8aa:	ad 2c       	mov	r10, r13
     8ac:	f2 cf       	rjmp	.-28     	; 0x892 <__stack+0x33>
				{
					ZmienDiode(x,y,z,stanWoop);
				}
			}
		}
		WyswietlKlatke(czasWoopWoop);
     8ae:	60 91 64 00 	lds	r22, 0x0064
     8b2:	70 e0       	ldi	r23, 0x00	; 0
     8b4:	80 e0       	ldi	r24, 0x00	; 0
     8b6:	90 e0       	ldi	r25, 0x00	; 0
     8b8:	0e 94 1d 0f 	call	0x1e3a	; 0x1e3a <__floatunsisf>
     8bc:	0e 94 d8 00 	call	0x1b0	; 0x1b0 <WyswietlKlatke>
     8c0:	21 97       	sbiw	r28, 0x01	; 1
     8c2:	48 f4       	brcc	.+18     	; 0x8d6 <__stack+0x77>
     8c4:	72 c1       	rjmp	.+740    	; 0xbaa <__stack+0x34b>
	
	
}
void WoopSelektor(uint8_t numerWoop, uint8_t stanWoop)
{
	switch(numerWoop)
     8c6:	c7 e0       	ldi	r28, 0x07	; 7
     8c8:	d0 e0       	ldi	r29, 0x00	; 0
	
	case 1:
	//rozpalanie od  7,7,7 do 0,0,0
	for(int8_t n=1;n<=8;n++)
	{
		for(int8_t x=7 ;x>=8-n;x--)
     8ca:	0f 2e       	mov	r0, r31
     8cc:	f7 e0       	ldi	r31, 0x07	; 7
     8ce:	cf 2e       	mov	r12, r31
     8d0:	f0 2d       	mov	r31, r0
	
	
}
void WoopSelektor(uint8_t numerWoop, uint8_t stanWoop)
{
	switch(numerWoop)
     8d2:	dc 2c       	mov	r13, r12
     8d4:	0c 2d       	mov	r16, r12
	
	case 1:
	//rozpalanie od  7,7,7 do 0,0,0
	for(int8_t n=1;n<=8;n++)
	{
		for(int8_t x=7 ;x>=8-n;x--)
     8d6:	7e 01       	movw	r14, r28
     8d8:	c8 30       	cpi	r28, 0x08	; 8
     8da:	d1 05       	cpc	r29, r1
     8dc:	2c f3       	brlt	.-54     	; 0x8a8 <__stack+0x49>
     8de:	e7 cf       	rjmp	.-50     	; 0x8ae <__stack+0x4f>
		{
			for(int8_t y=7 ;y>=8-n;y--)
			{
				for(int8_t z=0;z<n;z++)
				{
					ZmienDiode(x,y,z,stanWoop);
     8e0:	21 2f       	mov	r18, r17
     8e2:	4a 2d       	mov	r20, r10
     8e4:	69 2d       	mov	r22, r9
     8e6:	88 2d       	mov	r24, r8
     8e8:	0e 94 75 02 	call	0x4ea	; 0x4ea <ZmienDiode>
	{
		for(int8_t x=0;x<n;x++)
		{
			for(int8_t y=7 ;y>=8-n;y--)
			{
				for(int8_t z=0;z<n;z++)
     8ec:	a3 94       	inc	r10
     8ee:	a0 12       	cpse	r10, r16
     8f0:	f7 cf       	rjmp	.-18     	; 0x8e0 <__stack+0x81>
	//rozpalanie od  0,7,0 do 7,0,7
	for(int8_t n=1;n<=8;n++)
	{
		for(int8_t x=0;x<n;x++)
		{
			for(int8_t y=7 ;y>=8-n;y--)
     8f2:	9a 94       	dec	r9
     8f4:	29 2d       	mov	r18, r9
     8f6:	33 27       	eor	r19, r19
     8f8:	27 fd       	sbrc	r18, 7
     8fa:	30 95       	com	r19
     8fc:	2e 15       	cp	r18, r14
     8fe:	3f 05       	cpc	r19, r15
     900:	14 f4       	brge	.+4      	; 0x906 <__stack+0xa7>
     902:	03 c0       	rjmp	.+6      	; 0x90a <__stack+0xab>
     904:	9c 2c       	mov	r9, r12
	
	
}
void WoopSelektor(uint8_t numerWoop, uint8_t stanWoop)
{
	switch(numerWoop)
     906:	ad 2c       	mov	r10, r13
     908:	eb cf       	rjmp	.-42     	; 0x8e0 <__stack+0x81>

	case 2:
	//rozpalanie od  0,7,0 do 7,0,7
	for(int8_t n=1;n<=8;n++)
	{
		for(int8_t x=0;x<n;x++)
     90a:	83 94       	inc	r8
     90c:	80 12       	cpse	r8, r16
     90e:	03 c0       	rjmp	.+6      	; 0x916 <__stack+0xb7>
     910:	06 c0       	rjmp	.+12     	; 0x91e <__stack+0xbf>
     912:	8b 2c       	mov	r8, r11
		{
			for(int8_t y=7 ;y>=8-n;y--)
     914:	7e 01       	movw	r14, r28
     916:	c8 30       	cpi	r28, 0x08	; 8
     918:	d1 05       	cpc	r29, r1
     91a:	a4 f3       	brlt	.-24     	; 0x904 <__stack+0xa5>
     91c:	f6 cf       	rjmp	.-20     	; 0x90a <__stack+0xab>
				{
					ZmienDiode(x,y,z,stanWoop);
				}
			}
		}
		WyswietlKlatke(czasWoopWoop);
     91e:	60 91 64 00 	lds	r22, 0x0064
     922:	70 e0       	ldi	r23, 0x00	; 0
     924:	80 e0       	ldi	r24, 0x00	; 0
     926:	90 e0       	ldi	r25, 0x00	; 0
     928:	0e 94 1d 0f 	call	0x1e3a	; 0x1e3a <__floatunsisf>
     92c:	0e 94 d8 00 	call	0x1b0	; 0x1b0 <WyswietlKlatke>
	break;
	

	case 2:
	//rozpalanie od  0,7,0 do 7,0,7
	for(int8_t n=1;n<=8;n++)
     930:	0f 5f       	subi	r16, 0xFF	; 255
     932:	21 97       	sbiw	r28, 0x01	; 1
     934:	09 30       	cpi	r16, 0x09	; 9
     936:	51 f4       	brne	.+20     	; 0x94c <__stack+0xed>
     938:	38 c1       	rjmp	.+624    	; 0xbaa <__stack+0x34b>
	
	
}
void WoopSelektor(uint8_t numerWoop, uint8_t stanWoop)
{
	switch(numerWoop)
     93a:	c7 e0       	ldi	r28, 0x07	; 7
     93c:	d0 e0       	ldi	r29, 0x00	; 0
     93e:	01 e0       	ldi	r16, 0x01	; 1

	case 2:
	//rozpalanie od  0,7,0 do 7,0,7
	for(int8_t n=1;n<=8;n++)
	{
		for(int8_t x=0;x<n;x++)
     940:	b1 2c       	mov	r11, r1
		{
			for(int8_t y=7 ;y>=8-n;y--)
     942:	0f 2e       	mov	r0, r31
     944:	f7 e0       	ldi	r31, 0x07	; 7
     946:	cf 2e       	mov	r12, r31
     948:	f0 2d       	mov	r31, r0
	
	
}
void WoopSelektor(uint8_t numerWoop, uint8_t stanWoop)
{
	switch(numerWoop)
     94a:	d1 2c       	mov	r13, r1

	case 2:
	//rozpalanie od  0,7,0 do 7,0,7
	for(int8_t n=1;n<=8;n++)
	{
		for(int8_t x=0;x<n;x++)
     94c:	10 16       	cp	r1, r16
     94e:	0c f3       	brlt	.-62     	; 0x912 <__stack+0xb3>
     950:	e6 cf       	rjmp	.-52     	; 0x91e <__stack+0xbf>
		{
			for(int8_t y=0;y<n;y++)
			{
				for(int8_t z=7 ;z>=8-n;z--)
				{
					ZmienDiode(x,y,z,stanWoop);
     952:	21 2f       	mov	r18, r17
     954:	4a 2d       	mov	r20, r10
     956:	69 2d       	mov	r22, r9
     958:	88 2d       	mov	r24, r8
     95a:	0e 94 75 02 	call	0x4ea	; 0x4ea <ZmienDiode>
	{
		for(int8_t x=7 ;x>=8-n;x--)
		{
			for(int8_t y=0;y<n;y++)
			{
				for(int8_t z=7 ;z>=8-n;z--)
     95e:	aa 94       	dec	r10
     960:	2a 2d       	mov	r18, r10
     962:	33 27       	eor	r19, r19
     964:	27 fd       	sbrc	r18, 7
     966:	30 95       	com	r19
     968:	2e 15       	cp	r18, r14
     96a:	3f 05       	cpc	r19, r15
     96c:	94 f7       	brge	.-28     	; 0x952 <__stack+0xf3>
	//rozpalanie od  7,0,7 do 0,7,0
	for(int8_t n=1;n<=8;n++)
	{
		for(int8_t x=7 ;x>=8-n;x--)
		{
			for(int8_t y=0;y<n;y++)
     96e:	93 94       	inc	r9
     970:	90 12       	cpse	r9, r16
     972:	02 c0       	rjmp	.+4      	; 0x978 <__stack+0x119>
     974:	03 c0       	rjmp	.+6      	; 0x97c <__stack+0x11d>
     976:	9c 2c       	mov	r9, r12
	
	
}
void WoopSelektor(uint8_t numerWoop, uint8_t stanWoop)
{
	switch(numerWoop)
     978:	ad 2c       	mov	r10, r13
     97a:	eb cf       	rjmp	.-42     	; 0x952 <__stack+0xf3>
	
	case 3:
	//rozpalanie od  7,0,7 do 0,7,0
	for(int8_t n=1;n<=8;n++)
	{
		for(int8_t x=7 ;x>=8-n;x--)
     97c:	8a 94       	dec	r8
     97e:	28 2d       	mov	r18, r8
     980:	33 27       	eor	r19, r19
     982:	27 fd       	sbrc	r18, 7
     984:	30 95       	com	r19
     986:	2e 15       	cp	r18, r14
     988:	3f 05       	cpc	r19, r15
     98a:	14 f4       	brge	.+4      	; 0x990 <__stack+0x131>
     98c:	04 c0       	rjmp	.+8      	; 0x996 <__stack+0x137>
     98e:	8b 2c       	mov	r8, r11
		{
			for(int8_t y=0;y<n;y++)
     990:	10 16       	cp	r1, r16
     992:	8c f3       	brlt	.-30     	; 0x976 <__stack+0x117>
     994:	f3 cf       	rjmp	.-26     	; 0x97c <__stack+0x11d>
				{
					ZmienDiode(x,y,z,stanWoop);
				}
			}
		}
		WyswietlKlatke(czasWoopWoop);
     996:	60 91 64 00 	lds	r22, 0x0064
     99a:	70 e0       	ldi	r23, 0x00	; 0
     99c:	80 e0       	ldi	r24, 0x00	; 0
     99e:	90 e0       	ldi	r25, 0x00	; 0
     9a0:	0e 94 1d 0f 	call	0x1e3a	; 0x1e3a <__floatunsisf>
     9a4:	0e 94 d8 00 	call	0x1b0	; 0x1b0 <WyswietlKlatke>
	}
	break;
	
	case 3:
	//rozpalanie od  7,0,7 do 0,7,0
	for(int8_t n=1;n<=8;n++)
     9a8:	0f 5f       	subi	r16, 0xFF	; 255
     9aa:	21 97       	sbiw	r28, 0x01	; 1
     9ac:	09 30       	cpi	r16, 0x09	; 9
     9ae:	51 f4       	brne	.+20     	; 0x9c4 <__stack+0x165>
     9b0:	fc c0       	rjmp	.+504    	; 0xbaa <__stack+0x34b>
	
	
}
void WoopSelektor(uint8_t numerWoop, uint8_t stanWoop)
{
	switch(numerWoop)
     9b2:	c7 e0       	ldi	r28, 0x07	; 7
     9b4:	d0 e0       	ldi	r29, 0x00	; 0
     9b6:	01 e0       	ldi	r16, 0x01	; 1
	
	case 3:
	//rozpalanie od  7,0,7 do 0,7,0
	for(int8_t n=1;n<=8;n++)
	{
		for(int8_t x=7 ;x>=8-n;x--)
     9b8:	0f 2e       	mov	r0, r31
     9ba:	f7 e0       	ldi	r31, 0x07	; 7
     9bc:	bf 2e       	mov	r11, r31
     9be:	f0 2d       	mov	r31, r0
		{
			for(int8_t y=0;y<n;y++)
     9c0:	c1 2c       	mov	r12, r1
	
	
}
void WoopSelektor(uint8_t numerWoop, uint8_t stanWoop)
{
	switch(numerWoop)
     9c2:	db 2c       	mov	r13, r11
	
	case 3:
	//rozpalanie od  7,0,7 do 0,7,0
	for(int8_t n=1;n<=8;n++)
	{
		for(int8_t x=7 ;x>=8-n;x--)
     9c4:	7e 01       	movw	r14, r28
     9c6:	c8 30       	cpi	r28, 0x08	; 8
     9c8:	d1 05       	cpc	r29, r1
     9ca:	0c f3       	brlt	.-62     	; 0x98e <__stack+0x12f>
     9cc:	e4 cf       	rjmp	.-56     	; 0x996 <__stack+0x137>
		{
			for(int8_t y=7 ;y>=8-n;y--)
			{
				for(int8_t z=7 ;z>=8-n;z--)
				{
					ZmienDiode(x,y,z,stanWoop);
     9ce:	21 2f       	mov	r18, r17
     9d0:	4a 2d       	mov	r20, r10
     9d2:	69 2d       	mov	r22, r9
     9d4:	88 2d       	mov	r24, r8
     9d6:	0e 94 75 02 	call	0x4ea	; 0x4ea <ZmienDiode>
	{
		for(int8_t x=0;x<n;x++)
		{
			for(int8_t y=7 ;y>=8-n;y--)
			{
				for(int8_t z=7 ;z>=8-n;z--)
     9da:	aa 94       	dec	r10
     9dc:	2a 2d       	mov	r18, r10
     9de:	33 27       	eor	r19, r19
     9e0:	27 fd       	sbrc	r18, 7
     9e2:	30 95       	com	r19
     9e4:	2e 15       	cp	r18, r14
     9e6:	3f 05       	cpc	r19, r15
     9e8:	94 f7       	brge	.-28     	; 0x9ce <__stack+0x16f>
	//rozpalanie od  7,0,0 do 0,7,7
	for(int8_t n=1;n<=8;n++)
	{
		for(int8_t x=0;x<n;x++)
		{
			for(int8_t y=7 ;y>=8-n;y--)
     9ea:	9a 94       	dec	r9
     9ec:	29 2d       	mov	r18, r9
     9ee:	33 27       	eor	r19, r19
     9f0:	27 fd       	sbrc	r18, 7
     9f2:	30 95       	com	r19
     9f4:	2e 15       	cp	r18, r14
     9f6:	3f 05       	cpc	r19, r15
     9f8:	14 f4       	brge	.+4      	; 0x9fe <__stack+0x19f>
     9fa:	03 c0       	rjmp	.+6      	; 0xa02 <__stack+0x1a3>
     9fc:	9c 2c       	mov	r9, r12
	
	
}
void WoopSelektor(uint8_t numerWoop, uint8_t stanWoop)
{
	switch(numerWoop)
     9fe:	a0 2e       	mov	r10, r16
     a00:	e6 cf       	rjmp	.-52     	; 0x9ce <__stack+0x16f>
	
	case 4:
	//rozpalanie od  7,0,0 do 0,7,7
	for(int8_t n=1;n<=8;n++)
	{
		for(int8_t x=0;x<n;x++)
     a02:	83 94       	inc	r8
     a04:	8d 10       	cpse	r8, r13
     a06:	03 c0       	rjmp	.+6      	; 0xa0e <__stack+0x1af>
     a08:	06 c0       	rjmp	.+12     	; 0xa16 <__stack+0x1b7>
     a0a:	8b 2c       	mov	r8, r11
		{
			for(int8_t y=7 ;y>=8-n;y--)
     a0c:	7e 01       	movw	r14, r28
     a0e:	c8 30       	cpi	r28, 0x08	; 8
     a10:	d1 05       	cpc	r29, r1
     a12:	a4 f3       	brlt	.-24     	; 0x9fc <__stack+0x19d>
     a14:	f6 cf       	rjmp	.-20     	; 0xa02 <__stack+0x1a3>
				{
					ZmienDiode(x,y,z,stanWoop);
				}
			}
		}
		WyswietlKlatke(czasWoopWoop);
     a16:	60 91 64 00 	lds	r22, 0x0064
     a1a:	70 e0       	ldi	r23, 0x00	; 0
     a1c:	80 e0       	ldi	r24, 0x00	; 0
     a1e:	90 e0       	ldi	r25, 0x00	; 0
     a20:	0e 94 1d 0f 	call	0x1e3a	; 0x1e3a <__floatunsisf>
     a24:	0e 94 d8 00 	call	0x1b0	; 0x1b0 <WyswietlKlatke>
	}
	break;
	
	case 4:
	//rozpalanie od  7,0,0 do 0,7,7
	for(int8_t n=1;n<=8;n++)
     a28:	d3 94       	inc	r13
     a2a:	21 97       	sbiw	r28, 0x01	; 1
     a2c:	89 e0       	ldi	r24, 0x09	; 9
     a2e:	d8 12       	cpse	r13, r24
     a30:	0b c0       	rjmp	.+22     	; 0xa48 <__stack+0x1e9>
     a32:	bb c0       	rjmp	.+374    	; 0xbaa <__stack+0x34b>
	
	
}
void WoopSelektor(uint8_t numerWoop, uint8_t stanWoop)
{
	switch(numerWoop)
     a34:	c7 e0       	ldi	r28, 0x07	; 7
     a36:	d0 e0       	ldi	r29, 0x00	; 0
     a38:	dd 24       	eor	r13, r13
     a3a:	d3 94       	inc	r13
	
	case 4:
	//rozpalanie od  7,0,0 do 0,7,7
	for(int8_t n=1;n<=8;n++)
	{
		for(int8_t x=0;x<n;x++)
     a3c:	b1 2c       	mov	r11, r1
	
	
}
void WoopSelektor(uint8_t numerWoop, uint8_t stanWoop)
{
	switch(numerWoop)
     a3e:	0f 2e       	mov	r0, r31
     a40:	f7 e0       	ldi	r31, 0x07	; 7
     a42:	cf 2e       	mov	r12, r31
     a44:	f0 2d       	mov	r31, r0
     a46:	0c 2d       	mov	r16, r12
	
	case 4:
	//rozpalanie od  7,0,0 do 0,7,7
	for(int8_t n=1;n<=8;n++)
	{
		for(int8_t x=0;x<n;x++)
     a48:	1d 14       	cp	r1, r13
     a4a:	fc f2       	brlt	.-66     	; 0xa0a <__stack+0x1ab>
     a4c:	e4 cf       	rjmp	.-56     	; 0xa16 <__stack+0x1b7>
		{
			for(int8_t y=0;y<n;y++)
			{
				for(int8_t z=0;z<n;z++)
				{
					ZmienDiode(x,y,z,stanWoop);
     a4e:	21 2f       	mov	r18, r17
     a50:	4a 2d       	mov	r20, r10
     a52:	69 2d       	mov	r22, r9
     a54:	88 2d       	mov	r24, r8
     a56:	0e 94 75 02 	call	0x4ea	; 0x4ea <ZmienDiode>
	{
		for(int8_t x=7 ;x>=8-n;x--)
		{
			for(int8_t y=0;y<n;y++)
			{
				for(int8_t z=0;z<n;z++)
     a5a:	a3 94       	inc	r10
     a5c:	a0 12       	cpse	r10, r16
     a5e:	f7 cf       	rjmp	.-18     	; 0xa4e <__stack+0x1ef>
	//rozpalanie od  0,7,7 do 7,0,0
	for(int8_t n=1;n<=8;n++)
	{
		for(int8_t x=7 ;x>=8-n;x--)
		{
			for(int8_t y=0;y<n;y++)
     a60:	93 94       	inc	r9
     a62:	90 12       	cpse	r9, r16
     a64:	02 c0       	rjmp	.+4      	; 0xa6a <__stack+0x20b>
     a66:	03 c0       	rjmp	.+6      	; 0xa6e <__stack+0x20f>
     a68:	9c 2c       	mov	r9, r12
	
	
}
void WoopSelektor(uint8_t numerWoop, uint8_t stanWoop)
{
	switch(numerWoop)
     a6a:	ad 2c       	mov	r10, r13
     a6c:	f0 cf       	rjmp	.-32     	; 0xa4e <__stack+0x1ef>
	
	case 5:
	//rozpalanie od  0,7,7 do 7,0,0
	for(int8_t n=1;n<=8;n++)
	{
		for(int8_t x=7 ;x>=8-n;x--)
     a6e:	8a 94       	dec	r8
     a70:	28 2d       	mov	r18, r8
     a72:	33 27       	eor	r19, r19
     a74:	27 fd       	sbrc	r18, 7
     a76:	30 95       	com	r19
     a78:	2e 15       	cp	r18, r14
     a7a:	3f 05       	cpc	r19, r15
     a7c:	14 f4       	brge	.+4      	; 0xa82 <__stack+0x223>
     a7e:	04 c0       	rjmp	.+8      	; 0xa88 <__stack+0x229>
     a80:	8b 2c       	mov	r8, r11
		{
			for(int8_t y=0;y<n;y++)
     a82:	10 16       	cp	r1, r16
     a84:	8c f3       	brlt	.-30     	; 0xa68 <__stack+0x209>
     a86:	f3 cf       	rjmp	.-26     	; 0xa6e <__stack+0x20f>
				{
					ZmienDiode(x,y,z,stanWoop);
				}
			}
		}
		WyswietlKlatke(czasWoopWoop);
     a88:	60 91 64 00 	lds	r22, 0x0064
     a8c:	70 e0       	ldi	r23, 0x00	; 0
     a8e:	80 e0       	ldi	r24, 0x00	; 0
     a90:	90 e0       	ldi	r25, 0x00	; 0
     a92:	0e 94 1d 0f 	call	0x1e3a	; 0x1e3a <__floatunsisf>
     a96:	0e 94 d8 00 	call	0x1b0	; 0x1b0 <WyswietlKlatke>
	}
	break;
	
	case 5:
	//rozpalanie od  0,7,7 do 7,0,0
	for(int8_t n=1;n<=8;n++)
     a9a:	0f 5f       	subi	r16, 0xFF	; 255
     a9c:	21 97       	sbiw	r28, 0x01	; 1
     a9e:	09 30       	cpi	r16, 0x09	; 9
     aa0:	51 f4       	brne	.+20     	; 0xab6 <__stack+0x257>
     aa2:	83 c0       	rjmp	.+262    	; 0xbaa <__stack+0x34b>
	
	
}
void WoopSelektor(uint8_t numerWoop, uint8_t stanWoop)
{
	switch(numerWoop)
     aa4:	c7 e0       	ldi	r28, 0x07	; 7
     aa6:	d0 e0       	ldi	r29, 0x00	; 0
     aa8:	01 e0       	ldi	r16, 0x01	; 1
	
	case 5:
	//rozpalanie od  0,7,7 do 7,0,0
	for(int8_t n=1;n<=8;n++)
	{
		for(int8_t x=7 ;x>=8-n;x--)
     aaa:	0f 2e       	mov	r0, r31
     aac:	f7 e0       	ldi	r31, 0x07	; 7
     aae:	bf 2e       	mov	r11, r31
     ab0:	f0 2d       	mov	r31, r0
	
	
}
void WoopSelektor(uint8_t numerWoop, uint8_t stanWoop)
{
	switch(numerWoop)
     ab2:	c1 2c       	mov	r12, r1
     ab4:	dc 2c       	mov	r13, r12
	
	case 5:
	//rozpalanie od  0,7,7 do 7,0,0
	for(int8_t n=1;n<=8;n++)
	{
		for(int8_t x=7 ;x>=8-n;x--)
     ab6:	7e 01       	movw	r14, r28
     ab8:	c8 30       	cpi	r28, 0x08	; 8
     aba:	d1 05       	cpc	r29, r1
     abc:	0c f3       	brlt	.-62     	; 0xa80 <__stack+0x221>
     abe:	e4 cf       	rjmp	.-56     	; 0xa88 <__stack+0x229>
	{
		for(int8_t x=7 ;x>=8-n;x--)
		{
			for(int8_t y=7 ;y>=8-n;y--)
			{
				for(int8_t z=0;z<n;z++)
     ac0:	ad 2c       	mov	r10, r13
				{
					ZmienDiode(x,y,z,stanWoop);
     ac2:	21 2f       	mov	r18, r17
     ac4:	4a 2d       	mov	r20, r10
     ac6:	69 2d       	mov	r22, r9
     ac8:	88 2d       	mov	r24, r8
     aca:	0e 94 75 02 	call	0x4ea	; 0x4ea <ZmienDiode>
	{
		for(int8_t x=7 ;x>=8-n;x--)
		{
			for(int8_t y=7 ;y>=8-n;y--)
			{
				for(int8_t z=0;z<n;z++)
     ace:	a3 94       	inc	r10
     ad0:	a0 12       	cpse	r10, r16
     ad2:	f7 cf       	rjmp	.-18     	; 0xac2 <__stack+0x263>
	//rozpalanie od  7,7,0 do 0,07
	for(int8_t n=1;n<=8;n++)
	{
		for(int8_t x=7 ;x>=8-n;x--)
		{
			for(int8_t y=7 ;y>=8-n;y--)
     ad4:	9a 94       	dec	r9
     ad6:	29 2d       	mov	r18, r9
     ad8:	33 27       	eor	r19, r19
     ada:	27 fd       	sbrc	r18, 7
     adc:	30 95       	com	r19
     ade:	2e 15       	cp	r18, r14
     ae0:	3f 05       	cpc	r19, r15
     ae2:	1c f0       	brlt	.+6      	; 0xaea <__stack+0x28b>
			{
				for(int8_t z=0;z<n;z++)
     ae4:	10 16       	cp	r1, r16
     ae6:	64 f3       	brlt	.-40     	; 0xac0 <__stack+0x261>
     ae8:	f5 cf       	rjmp	.-22     	; 0xad4 <__stack+0x275>
	
	case 6:
	//rozpalanie od  7,7,0 do 0,07
	for(int8_t n=1;n<=8;n++)
	{
		for(int8_t x=7 ;x>=8-n;x--)
     aea:	8a 94       	dec	r8
     aec:	28 2d       	mov	r18, r8
     aee:	33 27       	eor	r19, r19
     af0:	27 fd       	sbrc	r18, 7
     af2:	30 95       	com	r19
     af4:	2e 15       	cp	r18, r14
     af6:	3f 05       	cpc	r19, r15
     af8:	14 f4       	brge	.+4      	; 0xafe <__stack+0x29f>
     afa:	03 c0       	rjmp	.+6      	; 0xb02 <__stack+0x2a3>
     afc:	8b 2c       	mov	r8, r11
		{
			for(int8_t y=7 ;y>=8-n;y--)
			{
				for(int8_t z=0;z<n;z++)
     afe:	9c 2c       	mov	r9, r12
     b00:	f1 cf       	rjmp	.-30     	; 0xae4 <__stack+0x285>
				{
					ZmienDiode(x,y,z,stanWoop);
				}
			}
		}
		WyswietlKlatke(czasWoopWoop);
     b02:	60 91 64 00 	lds	r22, 0x0064
     b06:	70 e0       	ldi	r23, 0x00	; 0
     b08:	80 e0       	ldi	r24, 0x00	; 0
     b0a:	90 e0       	ldi	r25, 0x00	; 0
     b0c:	0e 94 1d 0f 	call	0x1e3a	; 0x1e3a <__floatunsisf>
     b10:	0e 94 d8 00 	call	0x1b0	; 0x1b0 <WyswietlKlatke>
	}
	break;
	
	case 6:
	//rozpalanie od  7,7,0 do 0,07
	for(int8_t n=1;n<=8;n++)
     b14:	0f 5f       	subi	r16, 0xFF	; 255
     b16:	21 97       	sbiw	r28, 0x01	; 1
     b18:	09 30       	cpi	r16, 0x09	; 9
     b1a:	51 f4       	brne	.+20     	; 0xb30 <__stack+0x2d1>
     b1c:	46 c0       	rjmp	.+140    	; 0xbaa <__stack+0x34b>
	
	
}
void WoopSelektor(uint8_t numerWoop, uint8_t stanWoop)
{
	switch(numerWoop)
     b1e:	c7 e0       	ldi	r28, 0x07	; 7
     b20:	d0 e0       	ldi	r29, 0x00	; 0
     b22:	01 e0       	ldi	r16, 0x01	; 1
	
	case 6:
	//rozpalanie od  7,7,0 do 0,07
	for(int8_t n=1;n<=8;n++)
	{
		for(int8_t x=7 ;x>=8-n;x--)
     b24:	0f 2e       	mov	r0, r31
     b26:	f7 e0       	ldi	r31, 0x07	; 7
     b28:	bf 2e       	mov	r11, r31
     b2a:	f0 2d       	mov	r31, r0
		{
			for(int8_t y=7 ;y>=8-n;y--)
			{
				for(int8_t z=0;z<n;z++)
     b2c:	cb 2c       	mov	r12, r11
     b2e:	d1 2c       	mov	r13, r1
	
	case 6:
	//rozpalanie od  7,7,0 do 0,07
	for(int8_t n=1;n<=8;n++)
	{
		for(int8_t x=7 ;x>=8-n;x--)
     b30:	7e 01       	movw	r14, r28
     b32:	c8 30       	cpi	r28, 0x08	; 8
     b34:	d1 05       	cpc	r29, r1
     b36:	14 f3       	brlt	.-60     	; 0xafc <__stack+0x29d>
     b38:	e4 cf       	rjmp	.-56     	; 0xb02 <__stack+0x2a3>
	{
		for(int8_t x=0;x<n;x++)
		{
			for(int8_t y=0;y<n;y++)
			{
				for(int8_t z=7 ;z>=8-n;z--)
     b3a:	ad 2c       	mov	r10, r13
				{
					ZmienDiode(x,y,z,stanWoop);
     b3c:	21 2f       	mov	r18, r17
     b3e:	4a 2d       	mov	r20, r10
     b40:	69 2d       	mov	r22, r9
     b42:	88 2d       	mov	r24, r8
     b44:	0e 94 75 02 	call	0x4ea	; 0x4ea <ZmienDiode>
	{
		for(int8_t x=0;x<n;x++)
		{
			for(int8_t y=0;y<n;y++)
			{
				for(int8_t z=7 ;z>=8-n;z--)
     b48:	aa 94       	dec	r10
     b4a:	2a 2d       	mov	r18, r10
     b4c:	33 27       	eor	r19, r19
     b4e:	27 fd       	sbrc	r18, 7
     b50:	30 95       	com	r19
     b52:	2e 15       	cp	r18, r14
     b54:	3f 05       	cpc	r19, r15
     b56:	94 f7       	brge	.-28     	; 0xb3c <__stack+0x2dd>
	//rozpalanie od  0,0,7 do 7,7,0
	for(int8_t n=1;n<=8;n++)
	{
		for(int8_t x=0;x<n;x++)
		{
			for(int8_t y=0;y<n;y++)
     b58:	93 94       	inc	r9
     b5a:	90 16       	cp	r9, r16
     b5c:	21 f0       	breq	.+8      	; 0xb66 <__stack+0x307>
			{
				for(int8_t z=7 ;z>=8-n;z--)
     b5e:	c8 30       	cpi	r28, 0x08	; 8
     b60:	d1 05       	cpc	r29, r1
     b62:	5c f3       	brlt	.-42     	; 0xb3a <__stack+0x2db>
     b64:	f9 cf       	rjmp	.-14     	; 0xb58 <__stack+0x2f9>
	
	case 7:
	//rozpalanie od  0,0,7 do 7,7,0
	for(int8_t n=1;n<=8;n++)
	{
		for(int8_t x=0;x<n;x++)
     b66:	83 94       	inc	r8
     b68:	80 12       	cpse	r8, r16
     b6a:	03 c0       	rjmp	.+6      	; 0xb72 <__stack+0x313>
     b6c:	04 c0       	rjmp	.+8      	; 0xb76 <__stack+0x317>
     b6e:	8b 2c       	mov	r8, r11
		{
			for(int8_t y=0;y<n;y++)
			{
				for(int8_t z=7 ;z>=8-n;z--)
     b70:	7e 01       	movw	r14, r28
     b72:	9c 2c       	mov	r9, r12
     b74:	f4 cf       	rjmp	.-24     	; 0xb5e <__stack+0x2ff>
				{
					ZmienDiode(x,y,z,stanWoop);
				}
			}
		}
		WyswietlKlatke(czasWoopWoop);
     b76:	60 91 64 00 	lds	r22, 0x0064
     b7a:	70 e0       	ldi	r23, 0x00	; 0
     b7c:	80 e0       	ldi	r24, 0x00	; 0
     b7e:	90 e0       	ldi	r25, 0x00	; 0
     b80:	0e 94 1d 0f 	call	0x1e3a	; 0x1e3a <__floatunsisf>
     b84:	0e 94 d8 00 	call	0x1b0	; 0x1b0 <WyswietlKlatke>
	}
	break;
	
	case 7:
	//rozpalanie od  0,0,7 do 7,7,0
	for(int8_t n=1;n<=8;n++)
     b88:	0f 5f       	subi	r16, 0xFF	; 255
     b8a:	21 97       	sbiw	r28, 0x01	; 1
     b8c:	09 30       	cpi	r16, 0x09	; 9
     b8e:	51 f4       	brne	.+20     	; 0xba4 <__stack+0x345>
     b90:	0c c0       	rjmp	.+24     	; 0xbaa <__stack+0x34b>
	
	
}
void WoopSelektor(uint8_t numerWoop, uint8_t stanWoop)
{
	switch(numerWoop)
     b92:	c7 e0       	ldi	r28, 0x07	; 7
     b94:	d0 e0       	ldi	r29, 0x00	; 0
     b96:	01 e0       	ldi	r16, 0x01	; 1
	
	case 7:
	//rozpalanie od  0,0,7 do 7,7,0
	for(int8_t n=1;n<=8;n++)
	{
		for(int8_t x=0;x<n;x++)
     b98:	b1 2c       	mov	r11, r1
		{
			for(int8_t y=0;y<n;y++)
			{
				for(int8_t z=7 ;z>=8-n;z--)
     b9a:	cb 2c       	mov	r12, r11
     b9c:	0f 2e       	mov	r0, r31
     b9e:	f7 e0       	ldi	r31, 0x07	; 7
     ba0:	df 2e       	mov	r13, r31
     ba2:	f0 2d       	mov	r31, r0
	
	case 7:
	//rozpalanie od  0,0,7 do 7,7,0
	for(int8_t n=1;n<=8;n++)
	{
		for(int8_t x=0;x<n;x++)
     ba4:	10 16       	cp	r1, r16
     ba6:	1c f3       	brlt	.-58     	; 0xb6e <__stack+0x30f>
     ba8:	e6 cf       	rjmp	.-52     	; 0xb76 <__stack+0x317>
		}
		WyswietlKlatke(czasWoopWoop);
	}
	break;
	}
}
     baa:	df 91       	pop	r29
     bac:	cf 91       	pop	r28
     bae:	1f 91       	pop	r17
     bb0:	0f 91       	pop	r16
     bb2:	ff 90       	pop	r15
     bb4:	ef 90       	pop	r14
     bb6:	df 90       	pop	r13
     bb8:	cf 90       	pop	r12
     bba:	bf 90       	pop	r11
     bbc:	af 90       	pop	r10
     bbe:	9f 90       	pop	r9
     bc0:	8f 90       	pop	r8
     bc2:	08 95       	ret

00000bc4 <Czysc>:
	break;
}
	
}
void Czysc()
{
     bc4:	cf 92       	push	r12
     bc6:	df 92       	push	r13
     bc8:	ff 92       	push	r15
     bca:	0f 93       	push	r16
     bcc:	1f 93       	push	r17
     bce:	cf 93       	push	r28
     bd0:	df 93       	push	r29
     bd2:	0d e9       	ldi	r16, 0x9D	; 157
     bd4:	10 e0       	ldi	r17, 0x00	; 0
     bd6:	65 e9       	ldi	r22, 0x95	; 149
     bd8:	70 e0       	ldi	r23, 0x00	; 0
     bda:	4d e8       	ldi	r20, 0x8D	; 141
     bdc:	50 e0       	ldi	r21, 0x00	; 0
     bde:	25 e8       	ldi	r18, 0x85	; 133
     be0:	30 e0       	ldi	r19, 0x00	; 0
     be2:	8d e7       	ldi	r24, 0x7D	; 125
     be4:	90 e0       	ldi	r25, 0x00	; 0
     be6:	c5 e7       	ldi	r28, 0x75	; 117
     be8:	d0 e0       	ldi	r29, 0x00	; 0
     bea:	ad e6       	ldi	r26, 0x6D	; 109
     bec:	b0 e0       	ldi	r27, 0x00	; 0
     bee:	0f 2e       	mov	r0, r31
     bf0:	f5 e6       	ldi	r31, 0x65	; 101
     bf2:	cf 2e       	mov	r12, r31
     bf4:	f0 e0       	ldi	r31, 0x00	; 0
     bf6:	df 2e       	mov	r13, r31
     bf8:	f0 2d       	mov	r31, r0
	for(uint8_t i=0;i<8;i++)
     bfa:	f1 2c       	mov	r15, r1
	{
		warstwa1[i]=0;
     bfc:	f8 01       	movw	r30, r16
     bfe:	11 92       	st	Z+, r1
     c00:	8f 01       	movw	r16, r30
		warstwa2[i]=0;
     c02:	fb 01       	movw	r30, r22
     c04:	11 92       	st	Z+, r1
     c06:	bf 01       	movw	r22, r30
		warstwa3[i]=0;
     c08:	fa 01       	movw	r30, r20
     c0a:	11 92       	st	Z+, r1
     c0c:	af 01       	movw	r20, r30
		warstwa4[i]=0;
     c0e:	f9 01       	movw	r30, r18
     c10:	11 92       	st	Z+, r1
     c12:	9f 01       	movw	r18, r30
		warstwa5[i]=0;
     c14:	fc 01       	movw	r30, r24
     c16:	11 92       	st	Z+, r1
     c18:	cf 01       	movw	r24, r30
		warstwa6[i]=0;
     c1a:	19 92       	st	Y+, r1
		warstwa7[i]=0;
     c1c:	1d 92       	st	X+, r1
		warstwa8[i]=0;
     c1e:	f6 01       	movw	r30, r12
     c20:	11 92       	st	Z+, r1
     c22:	6f 01       	movw	r12, r30
}
	
}
void Czysc()
{
	for(uint8_t i=0;i<8;i++)
     c24:	f3 94       	inc	r15
     c26:	f8 e0       	ldi	r31, 0x08	; 8
     c28:	ff 12       	cpse	r15, r31
     c2a:	e8 cf       	rjmp	.-48     	; 0xbfc <Czysc+0x38>
		warstwa5[i]=0;
		warstwa6[i]=0;
		warstwa7[i]=0;
		warstwa8[i]=0;
	}
}
     c2c:	df 91       	pop	r29
     c2e:	cf 91       	pop	r28
     c30:	1f 91       	pop	r17
     c32:	0f 91       	pop	r16
     c34:	ff 90       	pop	r15
     c36:	df 90       	pop	r13
     c38:	cf 90       	pop	r12
     c3a:	08 95       	ret

00000c3c <HoopSelektor>:
	}
	
	
}
void HoopSelektor(uint8_t numerHoop, uint8_t stanHoop)
{
     c3c:	7f 92       	push	r7
     c3e:	8f 92       	push	r8
     c40:	9f 92       	push	r9
     c42:	af 92       	push	r10
     c44:	bf 92       	push	r11
     c46:	cf 92       	push	r12
     c48:	df 92       	push	r13
     c4a:	ef 92       	push	r14
     c4c:	ff 92       	push	r15
     c4e:	0f 93       	push	r16
     c50:	1f 93       	push	r17
     c52:	cf 93       	push	r28
     c54:	df 93       	push	r29
     c56:	16 2f       	mov	r17, r22
	
	switch(numerHoop)
     c58:	83 30       	cpi	r24, 0x03	; 3
     c5a:	09 f4       	brne	.+2      	; 0xc5e <HoopSelektor+0x22>
     c5c:	b8 c0       	rjmp	.+368    	; 0xdce <HoopSelektor+0x192>
     c5e:	28 f4       	brcc	.+10     	; 0xc6a <HoopSelektor+0x2e>
     c60:	81 30       	cpi	r24, 0x01	; 1
     c62:	c9 f1       	breq	.+114    	; 0xcd6 <HoopSelektor+0x9a>
     c64:	08 f0       	brcs	.+2      	; 0xc68 <HoopSelektor+0x2c>
     c66:	78 c0       	rjmp	.+240    	; 0xd58 <HoopSelektor+0x11c>
     c68:	0c c0       	rjmp	.+24     	; 0xc82 <HoopSelektor+0x46>
     c6a:	85 30       	cpi	r24, 0x05	; 5
     c6c:	09 f4       	brne	.+2      	; 0xc70 <HoopSelektor+0x34>
     c6e:	34 c1       	rjmp	.+616    	; 0xed8 <HoopSelektor+0x29c>
     c70:	08 f4       	brcc	.+2      	; 0xc74 <HoopSelektor+0x38>
     c72:	f0 c0       	rjmp	.+480    	; 0xe54 <HoopSelektor+0x218>
     c74:	86 30       	cpi	r24, 0x06	; 6
     c76:	09 f4       	brne	.+2      	; 0xc7a <HoopSelektor+0x3e>
     c78:	6a c1       	rjmp	.+724    	; 0xf4e <HoopSelektor+0x312>
     c7a:	87 30       	cpi	r24, 0x07	; 7
     c7c:	09 f0       	breq	.+2      	; 0xc80 <HoopSelektor+0x44>
     c7e:	e2 c1       	rjmp	.+964    	; 0x1044 <HoopSelektor+0x408>
     c80:	a8 c1       	rjmp	.+848    	; 0xfd2 <HoopSelektor+0x396>
     c82:	08 e0       	ldi	r16, 0x08	; 8
	//gaszenie  0,0,0 do 7,7,7
	for(int8_t n=8;n>=1;n--)
	{
		Czysc();
		
		for(int8_t x=0;x<n;x++)
     c84:	c1 2c       	mov	r12, r1
	
}
void HoopSelektor(uint8_t numerHoop, uint8_t stanHoop)
{
	
	switch(numerHoop)
     c86:	dc 2c       	mov	r13, r12
     c88:	ec 2c       	mov	r14, r12
	{
	case 0:
	//gaszenie  0,0,0 do 7,7,7
	for(int8_t n=8;n>=1;n--)
	{
		Czysc();
     c8a:	0e 94 e2 05 	call	0xbc4	; 0xbc4 <Czysc>
		
		for(int8_t x=0;x<n;x++)
     c8e:	10 16       	cp	r1, r16
     c90:	9c f0       	brlt	.+38     	; 0xcb8 <HoopSelektor+0x7c>
     c92:	15 c0       	rjmp	.+42     	; 0xcbe <HoopSelektor+0x82>
		{
			for(int8_t y=0;y<n;y++)
			{
				for(int8_t z=0;z<n;z++)
				{
					ZmienDiode(x,y,z,stanHoop);
     c94:	21 2f       	mov	r18, r17
     c96:	4c 2f       	mov	r20, r28
     c98:	6d 2f       	mov	r22, r29
     c9a:	8f 2d       	mov	r24, r15
     c9c:	0e 94 75 02 	call	0x4ea	; 0x4ea <ZmienDiode>
		
		for(int8_t x=0;x<n;x++)
		{
			for(int8_t y=0;y<n;y++)
			{
				for(int8_t z=0;z<n;z++)
     ca0:	cf 5f       	subi	r28, 0xFF	; 255
     ca2:	c0 13       	cpse	r28, r16
     ca4:	f7 cf       	rjmp	.-18     	; 0xc94 <HoopSelektor+0x58>
	{
		Czysc();
		
		for(int8_t x=0;x<n;x++)
		{
			for(int8_t y=0;y<n;y++)
     ca6:	df 5f       	subi	r29, 0xFF	; 255
     ca8:	d0 17       	cp	r29, r16
     caa:	11 f0       	breq	.+4      	; 0xcb0 <HoopSelektor+0x74>
	
}
void HoopSelektor(uint8_t numerHoop, uint8_t stanHoop)
{
	
	switch(numerHoop)
     cac:	ce 2d       	mov	r28, r14
     cae:	f2 cf       	rjmp	.-28     	; 0xc94 <HoopSelektor+0x58>
	//gaszenie  0,0,0 do 7,7,7
	for(int8_t n=8;n>=1;n--)
	{
		Czysc();
		
		for(int8_t x=0;x<n;x++)
     cb0:	f3 94       	inc	r15
     cb2:	f0 12       	cpse	r15, r16
     cb4:	02 c0       	rjmp	.+4      	; 0xcba <HoopSelektor+0x7e>
     cb6:	03 c0       	rjmp	.+6      	; 0xcbe <HoopSelektor+0x82>
     cb8:	fc 2c       	mov	r15, r12
	
}
void HoopSelektor(uint8_t numerHoop, uint8_t stanHoop)
{
	
	switch(numerHoop)
     cba:	dd 2d       	mov	r29, r13
     cbc:	f7 cf       	rjmp	.-18     	; 0xcac <HoopSelektor+0x70>
				{
					ZmienDiode(x,y,z,stanHoop);
				}
			}
		}
		WyswietlKlatke(czasWoopWoop);
     cbe:	60 91 64 00 	lds	r22, 0x0064
     cc2:	70 e0       	ldi	r23, 0x00	; 0
     cc4:	80 e0       	ldi	r24, 0x00	; 0
     cc6:	90 e0       	ldi	r25, 0x00	; 0
     cc8:	0e 94 1d 0f 	call	0x1e3a	; 0x1e3a <__floatunsisf>
     ccc:	0e 94 d8 00 	call	0x1b0	; 0x1b0 <WyswietlKlatke>
	
	switch(numerHoop)
	{
	case 0:
	//gaszenie  0,0,0 do 7,7,7
	for(int8_t n=8;n>=1;n--)
     cd0:	01 50       	subi	r16, 0x01	; 1
     cd2:	d9 f6       	brne	.-74     	; 0xc8a <HoopSelektor+0x4e>
     cd4:	b7 c1       	rjmp	.+878    	; 0x1044 <HoopSelektor+0x408>
	
}
void HoopSelektor(uint8_t numerHoop, uint8_t stanHoop)
{
	
	switch(numerHoop)
     cd6:	cf ef       	ldi	r28, 0xFF	; 255
     cd8:	df ef       	ldi	r29, 0xFF	; 255
	case 1:
	//gaszenie od  7,7,7 do 0,0,0
	for(int8_t n=8;n>=1;n--)
	{
		Czysc();
		for(int8_t x=7 ;x>7-n;x--)
     cda:	0f 2e       	mov	r0, r31
     cdc:	f7 e0       	ldi	r31, 0x07	; 7
     cde:	cf 2e       	mov	r12, r31
     ce0:	f0 2d       	mov	r31, r0
	
}
void HoopSelektor(uint8_t numerHoop, uint8_t stanHoop)
{
	
	switch(numerHoop)
     ce2:	dc 2c       	mov	r13, r12
     ce4:	0c 2d       	mov	r16, r12
	
	case 1:
	//gaszenie od  7,7,7 do 0,0,0
	for(int8_t n=8;n>=1;n--)
	{
		Czysc();
     ce6:	0e 94 e2 05 	call	0xbc4	; 0xbc4 <Czysc>
		for(int8_t x=7 ;x>7-n;x--)
     cea:	7e 01       	movw	r14, r28
     cec:	c7 30       	cpi	r28, 0x07	; 7
     cee:	d1 05       	cpc	r29, r1
     cf0:	14 f1       	brlt	.+68     	; 0xd36 <HoopSelektor+0xfa>
     cf2:	24 c0       	rjmp	.+72     	; 0xd3c <HoopSelektor+0x100>
		{
			for(int8_t y=7 ;y>7-n;y--)
			{
				for(int8_t z=7 ;z>7-n;z--)
				{
					ZmienDiode(x,y,z,stanHoop);
     cf4:	21 2f       	mov	r18, r17
     cf6:	4b 2d       	mov	r20, r11
     cf8:	6a 2d       	mov	r22, r10
     cfa:	89 2d       	mov	r24, r9
     cfc:	0e 94 75 02 	call	0x4ea	; 0x4ea <ZmienDiode>
		Czysc();
		for(int8_t x=7 ;x>7-n;x--)
		{
			for(int8_t y=7 ;y>7-n;y--)
			{
				for(int8_t z=7 ;z>7-n;z--)
     d00:	ba 94       	dec	r11
     d02:	2b 2d       	mov	r18, r11
     d04:	33 27       	eor	r19, r19
     d06:	27 fd       	sbrc	r18, 7
     d08:	30 95       	com	r19
     d0a:	e2 16       	cp	r14, r18
     d0c:	f3 06       	cpc	r15, r19
     d0e:	94 f3       	brlt	.-28     	; 0xcf4 <HoopSelektor+0xb8>
	for(int8_t n=8;n>=1;n--)
	{
		Czysc();
		for(int8_t x=7 ;x>7-n;x--)
		{
			for(int8_t y=7 ;y>7-n;y--)
     d10:	aa 94       	dec	r10
     d12:	2a 2d       	mov	r18, r10
     d14:	33 27       	eor	r19, r19
     d16:	27 fd       	sbrc	r18, 7
     d18:	30 95       	com	r19
     d1a:	e2 16       	cp	r14, r18
     d1c:	f3 06       	cpc	r15, r19
     d1e:	14 f4       	brge	.+4      	; 0xd24 <HoopSelektor+0xe8>
	
}
void HoopSelektor(uint8_t numerHoop, uint8_t stanHoop)
{
	
	switch(numerHoop)
     d20:	b0 2e       	mov	r11, r16
     d22:	e8 cf       	rjmp	.-48     	; 0xcf4 <HoopSelektor+0xb8>
	case 1:
	//gaszenie od  7,7,7 do 0,0,0
	for(int8_t n=8;n>=1;n--)
	{
		Czysc();
		for(int8_t x=7 ;x>7-n;x--)
     d24:	9a 94       	dec	r9
     d26:	29 2d       	mov	r18, r9
     d28:	33 27       	eor	r19, r19
     d2a:	27 fd       	sbrc	r18, 7
     d2c:	30 95       	com	r19
     d2e:	e2 16       	cp	r14, r18
     d30:	f3 06       	cpc	r15, r19
     d32:	14 f0       	brlt	.+4      	; 0xd38 <HoopSelektor+0xfc>
     d34:	03 c0       	rjmp	.+6      	; 0xd3c <HoopSelektor+0x100>
     d36:	9c 2c       	mov	r9, r12
	
}
void HoopSelektor(uint8_t numerHoop, uint8_t stanHoop)
{
	
	switch(numerHoop)
     d38:	ad 2c       	mov	r10, r13
     d3a:	f2 cf       	rjmp	.-28     	; 0xd20 <HoopSelektor+0xe4>
				{
					ZmienDiode(x,y,z,stanHoop);
				}
			}
		}
		WyswietlKlatke(czasWoopWoop);
     d3c:	60 91 64 00 	lds	r22, 0x0064
     d40:	70 e0       	ldi	r23, 0x00	; 0
     d42:	80 e0       	ldi	r24, 0x00	; 0
     d44:	90 e0       	ldi	r25, 0x00	; 0
     d46:	0e 94 1d 0f 	call	0x1e3a	; 0x1e3a <__floatunsisf>
     d4a:	0e 94 d8 00 	call	0x1b0	; 0x1b0 <WyswietlKlatke>
     d4e:	21 96       	adiw	r28, 0x01	; 1
	}
	break;
	
	case 1:
	//gaszenie od  7,7,7 do 0,0,0
	for(int8_t n=8;n>=1;n--)
     d50:	c7 30       	cpi	r28, 0x07	; 7
     d52:	d1 05       	cpc	r29, r1
     d54:	41 f6       	brne	.-112    	; 0xce6 <HoopSelektor+0xaa>
     d56:	76 c1       	rjmp	.+748    	; 0x1044 <HoopSelektor+0x408>
	
}
void HoopSelektor(uint8_t numerHoop, uint8_t stanHoop)
{
	
	switch(numerHoop)
     d58:	cf ef       	ldi	r28, 0xFF	; 255
     d5a:	df ef       	ldi	r29, 0xFF	; 255
     d5c:	08 e0       	ldi	r16, 0x08	; 8
	case 2:
	//rozpalanie od  0,7,0 do 7,0,7
	for(int8_t n=8;n>=1;n--)
	{
		Czysc();
		for(int8_t x=0;x<n;x++)
     d5e:	b1 2c       	mov	r11, r1
		{
			for(int8_t y=7 ;y>7-n;y--)
     d60:	0f 2e       	mov	r0, r31
     d62:	f7 e0       	ldi	r31, 0x07	; 7
     d64:	cf 2e       	mov	r12, r31
     d66:	f0 2d       	mov	r31, r0
	
}
void HoopSelektor(uint8_t numerHoop, uint8_t stanHoop)
{
	
	switch(numerHoop)
     d68:	d1 2c       	mov	r13, r1

	case 2:
	//rozpalanie od  0,7,0 do 7,0,7
	for(int8_t n=8;n>=1;n--)
	{
		Czysc();
     d6a:	0e 94 e2 05 	call	0xbc4	; 0xbc4 <Czysc>
		for(int8_t x=0;x<n;x++)
     d6e:	10 16       	cp	r1, r16
     d70:	d4 f0       	brlt	.+52     	; 0xda6 <HoopSelektor+0x16a>
     d72:	1f c0       	rjmp	.+62     	; 0xdb2 <HoopSelektor+0x176>
		{
			for(int8_t y=7 ;y>7-n;y--)
			{
				for(int8_t z=0;z<n;z++)
				{
					ZmienDiode(x,y,z,stanHoop);
     d74:	21 2f       	mov	r18, r17
     d76:	4a 2d       	mov	r20, r10
     d78:	69 2d       	mov	r22, r9
     d7a:	88 2d       	mov	r24, r8
     d7c:	0e 94 75 02 	call	0x4ea	; 0x4ea <ZmienDiode>
		Czysc();
		for(int8_t x=0;x<n;x++)
		{
			for(int8_t y=7 ;y>7-n;y--)
			{
				for(int8_t z=0;z<n;z++)
     d80:	a3 94       	inc	r10
     d82:	a0 12       	cpse	r10, r16
     d84:	f7 cf       	rjmp	.-18     	; 0xd74 <HoopSelektor+0x138>
	for(int8_t n=8;n>=1;n--)
	{
		Czysc();
		for(int8_t x=0;x<n;x++)
		{
			for(int8_t y=7 ;y>7-n;y--)
     d86:	9a 94       	dec	r9
     d88:	29 2d       	mov	r18, r9
     d8a:	33 27       	eor	r19, r19
     d8c:	27 fd       	sbrc	r18, 7
     d8e:	30 95       	com	r19
     d90:	e2 16       	cp	r14, r18
     d92:	f3 06       	cpc	r15, r19
     d94:	14 f0       	brlt	.+4      	; 0xd9a <HoopSelektor+0x15e>
     d96:	03 c0       	rjmp	.+6      	; 0xd9e <HoopSelektor+0x162>
     d98:	9c 2c       	mov	r9, r12
	
}
void HoopSelektor(uint8_t numerHoop, uint8_t stanHoop)
{
	
	switch(numerHoop)
     d9a:	ad 2c       	mov	r10, r13
     d9c:	eb cf       	rjmp	.-42     	; 0xd74 <HoopSelektor+0x138>
	case 2:
	//rozpalanie od  0,7,0 do 7,0,7
	for(int8_t n=8;n>=1;n--)
	{
		Czysc();
		for(int8_t x=0;x<n;x++)
     d9e:	83 94       	inc	r8
     da0:	80 12       	cpse	r8, r16
     da2:	03 c0       	rjmp	.+6      	; 0xdaa <HoopSelektor+0x16e>
     da4:	06 c0       	rjmp	.+12     	; 0xdb2 <HoopSelektor+0x176>
     da6:	8b 2c       	mov	r8, r11
		{
			for(int8_t y=7 ;y>7-n;y--)
     da8:	7e 01       	movw	r14, r28
     daa:	c7 30       	cpi	r28, 0x07	; 7
     dac:	d1 05       	cpc	r29, r1
     dae:	a4 f3       	brlt	.-24     	; 0xd98 <HoopSelektor+0x15c>
     db0:	f6 cf       	rjmp	.-20     	; 0xd9e <HoopSelektor+0x162>
				{
					ZmienDiode(x,y,z,stanHoop);
				}
			}
		}
		WyswietlKlatke(czasWoopWoop);
     db2:	60 91 64 00 	lds	r22, 0x0064
     db6:	70 e0       	ldi	r23, 0x00	; 0
     db8:	80 e0       	ldi	r24, 0x00	; 0
     dba:	90 e0       	ldi	r25, 0x00	; 0
     dbc:	0e 94 1d 0f 	call	0x1e3a	; 0x1e3a <__floatunsisf>
     dc0:	0e 94 d8 00 	call	0x1b0	; 0x1b0 <WyswietlKlatke>
	break;
	

	case 2:
	//rozpalanie od  0,7,0 do 7,0,7
	for(int8_t n=8;n>=1;n--)
     dc4:	01 50       	subi	r16, 0x01	; 1
     dc6:	21 96       	adiw	r28, 0x01	; 1
     dc8:	01 11       	cpse	r16, r1
     dca:	cf cf       	rjmp	.-98     	; 0xd6a <HoopSelektor+0x12e>
     dcc:	3b c1       	rjmp	.+630    	; 0x1044 <HoopSelektor+0x408>
	
}
void HoopSelektor(uint8_t numerHoop, uint8_t stanHoop)
{
	
	switch(numerHoop)
     dce:	cf ef       	ldi	r28, 0xFF	; 255
     dd0:	df ef       	ldi	r29, 0xFF	; 255
     dd2:	68 94       	set
     dd4:	cc 24       	eor	r12, r12
     dd6:	c3 f8       	bld	r12, 3
	case 3:
	//rozpalanie od  7,0,7 do 0,7,0
	for(int8_t n=8;n>=1;n--)
	{
		Czysc();
		for(int8_t x=7 ;x>7-n;x--)
     dd8:	0f 2e       	mov	r0, r31
     dda:	f7 e0       	ldi	r31, 0x07	; 7
     ddc:	bf 2e       	mov	r11, r31
     dde:	f0 2d       	mov	r31, r0
		{
			for(int8_t y=0;y<n;y++)
     de0:	d1 2c       	mov	r13, r1
	
}
void HoopSelektor(uint8_t numerHoop, uint8_t stanHoop)
{
	
	switch(numerHoop)
     de2:	0b 2d       	mov	r16, r11
     de4:	7c 2c       	mov	r7, r12
	
	case 3:
	//rozpalanie od  7,0,7 do 0,7,0
	for(int8_t n=8;n>=1;n--)
	{
		Czysc();
     de6:	0e 94 e2 05 	call	0xbc4	; 0xbc4 <Czysc>
		for(int8_t x=7 ;x>7-n;x--)
     dea:	7e 01       	movw	r14, r28
     dec:	c7 30       	cpi	r28, 0x07	; 7
     dee:	d1 05       	cpc	r29, r1
     df0:	fc f0       	brlt	.+62     	; 0xe30 <HoopSelektor+0x1f4>
     df2:	22 c0       	rjmp	.+68     	; 0xe38 <HoopSelektor+0x1fc>
		{
			for(int8_t y=0;y<n;y++)
			{
				for(int8_t z=7 ;z>7-n;z--)
				{
					ZmienDiode(x,y,z,stanHoop);
     df4:	21 2f       	mov	r18, r17
     df6:	4a 2d       	mov	r20, r10
     df8:	69 2d       	mov	r22, r9
     dfa:	88 2d       	mov	r24, r8
     dfc:	0e 94 75 02 	call	0x4ea	; 0x4ea <ZmienDiode>
		Czysc();
		for(int8_t x=7 ;x>7-n;x--)
		{
			for(int8_t y=0;y<n;y++)
			{
				for(int8_t z=7 ;z>7-n;z--)
     e00:	aa 94       	dec	r10
     e02:	2a 2d       	mov	r18, r10
     e04:	33 27       	eor	r19, r19
     e06:	27 fd       	sbrc	r18, 7
     e08:	30 95       	com	r19
     e0a:	e2 16       	cp	r14, r18
     e0c:	f3 06       	cpc	r15, r19
     e0e:	94 f3       	brlt	.-28     	; 0xdf4 <HoopSelektor+0x1b8>
	for(int8_t n=8;n>=1;n--)
	{
		Czysc();
		for(int8_t x=7 ;x>7-n;x--)
		{
			for(int8_t y=0;y<n;y++)
     e10:	93 94       	inc	r9
     e12:	97 10       	cpse	r9, r7
     e14:	02 c0       	rjmp	.+4      	; 0xe1a <HoopSelektor+0x1de>
     e16:	03 c0       	rjmp	.+6      	; 0xe1e <HoopSelektor+0x1e2>
     e18:	9d 2c       	mov	r9, r13
	
}
void HoopSelektor(uint8_t numerHoop, uint8_t stanHoop)
{
	
	switch(numerHoop)
     e1a:	a0 2e       	mov	r10, r16
     e1c:	eb cf       	rjmp	.-42     	; 0xdf4 <HoopSelektor+0x1b8>
	case 3:
	//rozpalanie od  7,0,7 do 0,7,0
	for(int8_t n=8;n>=1;n--)
	{
		Czysc();
		for(int8_t x=7 ;x>7-n;x--)
     e1e:	8a 94       	dec	r8
     e20:	28 2d       	mov	r18, r8
     e22:	33 27       	eor	r19, r19
     e24:	27 fd       	sbrc	r18, 7
     e26:	30 95       	com	r19
     e28:	e2 16       	cp	r14, r18
     e2a:	f3 06       	cpc	r15, r19
     e2c:	14 f0       	brlt	.+4      	; 0xe32 <HoopSelektor+0x1f6>
     e2e:	04 c0       	rjmp	.+8      	; 0xe38 <HoopSelektor+0x1fc>
     e30:	8b 2c       	mov	r8, r11
		{
			for(int8_t y=0;y<n;y++)
     e32:	17 14       	cp	r1, r7
     e34:	8c f3       	brlt	.-30     	; 0xe18 <HoopSelektor+0x1dc>
     e36:	f3 cf       	rjmp	.-26     	; 0xe1e <HoopSelektor+0x1e2>
				{
					ZmienDiode(x,y,z,stanHoop);
				}
			}
		}
		WyswietlKlatke(czasWoopWoop);
     e38:	60 91 64 00 	lds	r22, 0x0064
     e3c:	70 e0       	ldi	r23, 0x00	; 0
     e3e:	80 e0       	ldi	r24, 0x00	; 0
     e40:	90 e0       	ldi	r25, 0x00	; 0
     e42:	0e 94 1d 0f 	call	0x1e3a	; 0x1e3a <__floatunsisf>
     e46:	0e 94 d8 00 	call	0x1b0	; 0x1b0 <WyswietlKlatke>
     e4a:	ca 94       	dec	r12
     e4c:	21 96       	adiw	r28, 0x01	; 1
	}
	break;
	
	case 3:
	//rozpalanie od  7,0,7 do 0,7,0
	for(int8_t n=8;n>=1;n--)
     e4e:	c1 10       	cpse	r12, r1
     e50:	c9 cf       	rjmp	.-110    	; 0xde4 <HoopSelektor+0x1a8>
     e52:	f8 c0       	rjmp	.+496    	; 0x1044 <HoopSelektor+0x408>
	
}
void HoopSelektor(uint8_t numerHoop, uint8_t stanHoop)
{
	
	switch(numerHoop)
     e54:	cf ef       	ldi	r28, 0xFF	; 255
     e56:	df ef       	ldi	r29, 0xFF	; 255
     e58:	68 94       	set
     e5a:	dd 24       	eor	r13, r13
     e5c:	d3 f8       	bld	r13, 3
	case 4:
	//rozpalanie od  7,0,0 do 0,7,7
	for(int8_t n=8;n>=1;n--)
	{
		Czysc();
		for(int8_t x=0;x<n;x++)
     e5e:	b1 2c       	mov	r11, r1
	
}
void HoopSelektor(uint8_t numerHoop, uint8_t stanHoop)
{
	
	switch(numerHoop)
     e60:	0f 2e       	mov	r0, r31
     e62:	f7 e0       	ldi	r31, 0x07	; 7
     e64:	cf 2e       	mov	r12, r31
     e66:	f0 2d       	mov	r31, r0
     e68:	0c 2d       	mov	r16, r12
	
	case 4:
	//rozpalanie od  7,0,0 do 0,7,7
	for(int8_t n=8;n>=1;n--)
	{
		Czysc();
     e6a:	0e 94 e2 05 	call	0xbc4	; 0xbc4 <Czysc>
		for(int8_t x=0;x<n;x++)
     e6e:	1d 14       	cp	r1, r13
     e70:	fc f0       	brlt	.+62     	; 0xeb0 <HoopSelektor+0x274>
     e72:	24 c0       	rjmp	.+72     	; 0xebc <HoopSelektor+0x280>
		{
			for(int8_t y=7 ;y>7-n;y--)
			{
				for(int8_t z=7 ;z>7-n;z--)
				{
					ZmienDiode(x,y,z,stanHoop);
     e74:	21 2f       	mov	r18, r17
     e76:	4a 2d       	mov	r20, r10
     e78:	69 2d       	mov	r22, r9
     e7a:	88 2d       	mov	r24, r8
     e7c:	0e 94 75 02 	call	0x4ea	; 0x4ea <ZmienDiode>
		Czysc();
		for(int8_t x=0;x<n;x++)
		{
			for(int8_t y=7 ;y>7-n;y--)
			{
				for(int8_t z=7 ;z>7-n;z--)
     e80:	aa 94       	dec	r10
     e82:	2a 2d       	mov	r18, r10
     e84:	33 27       	eor	r19, r19
     e86:	27 fd       	sbrc	r18, 7
     e88:	30 95       	com	r19
     e8a:	e2 16       	cp	r14, r18
     e8c:	f3 06       	cpc	r15, r19
     e8e:	94 f3       	brlt	.-28     	; 0xe74 <HoopSelektor+0x238>
	for(int8_t n=8;n>=1;n--)
	{
		Czysc();
		for(int8_t x=0;x<n;x++)
		{
			for(int8_t y=7 ;y>7-n;y--)
     e90:	9a 94       	dec	r9
     e92:	29 2d       	mov	r18, r9
     e94:	33 27       	eor	r19, r19
     e96:	27 fd       	sbrc	r18, 7
     e98:	30 95       	com	r19
     e9a:	e2 16       	cp	r14, r18
     e9c:	f3 06       	cpc	r15, r19
     e9e:	14 f0       	brlt	.+4      	; 0xea4 <HoopSelektor+0x268>
     ea0:	03 c0       	rjmp	.+6      	; 0xea8 <HoopSelektor+0x26c>
     ea2:	9c 2c       	mov	r9, r12
	
}
void HoopSelektor(uint8_t numerHoop, uint8_t stanHoop)
{
	
	switch(numerHoop)
     ea4:	a0 2e       	mov	r10, r16
     ea6:	e6 cf       	rjmp	.-52     	; 0xe74 <HoopSelektor+0x238>
	case 4:
	//rozpalanie od  7,0,0 do 0,7,7
	for(int8_t n=8;n>=1;n--)
	{
		Czysc();
		for(int8_t x=0;x<n;x++)
     ea8:	83 94       	inc	r8
     eaa:	8d 10       	cpse	r8, r13
     eac:	03 c0       	rjmp	.+6      	; 0xeb4 <HoopSelektor+0x278>
     eae:	06 c0       	rjmp	.+12     	; 0xebc <HoopSelektor+0x280>
     eb0:	8b 2c       	mov	r8, r11
		{
			for(int8_t y=7 ;y>7-n;y--)
     eb2:	7e 01       	movw	r14, r28
     eb4:	c7 30       	cpi	r28, 0x07	; 7
     eb6:	d1 05       	cpc	r29, r1
     eb8:	a4 f3       	brlt	.-24     	; 0xea2 <HoopSelektor+0x266>
     eba:	f6 cf       	rjmp	.-20     	; 0xea8 <HoopSelektor+0x26c>
				{
					ZmienDiode(x,y,z,stanHoop);
				}
			}
		}
		WyswietlKlatke(czasWoopWoop);
     ebc:	60 91 64 00 	lds	r22, 0x0064
     ec0:	70 e0       	ldi	r23, 0x00	; 0
     ec2:	80 e0       	ldi	r24, 0x00	; 0
     ec4:	90 e0       	ldi	r25, 0x00	; 0
     ec6:	0e 94 1d 0f 	call	0x1e3a	; 0x1e3a <__floatunsisf>
     eca:	0e 94 d8 00 	call	0x1b0	; 0x1b0 <WyswietlKlatke>
	}
	break;
	
	case 4:
	//rozpalanie od  7,0,0 do 0,7,7
	for(int8_t n=8;n>=1;n--)
     ece:	da 94       	dec	r13
     ed0:	21 96       	adiw	r28, 0x01	; 1
     ed2:	d1 10       	cpse	r13, r1
     ed4:	ca cf       	rjmp	.-108    	; 0xe6a <HoopSelektor+0x22e>
     ed6:	b6 c0       	rjmp	.+364    	; 0x1044 <HoopSelektor+0x408>
	
}
void HoopSelektor(uint8_t numerHoop, uint8_t stanHoop)
{
	
	switch(numerHoop)
     ed8:	cf ef       	ldi	r28, 0xFF	; 255
     eda:	df ef       	ldi	r29, 0xFF	; 255
     edc:	08 e0       	ldi	r16, 0x08	; 8
	case 5:
	//rozpalanie od  0,7,7 do 7,0,0
	for(int8_t n=8;n>=1;n--)
	{
		Czysc();
		for(int8_t x=7 ;x>7-n;x--)
     ede:	0f 2e       	mov	r0, r31
     ee0:	f7 e0       	ldi	r31, 0x07	; 7
     ee2:	bf 2e       	mov	r11, r31
     ee4:	f0 2d       	mov	r31, r0
	
}
void HoopSelektor(uint8_t numerHoop, uint8_t stanHoop)
{
	
	switch(numerHoop)
     ee6:	c1 2c       	mov	r12, r1
     ee8:	dc 2c       	mov	r13, r12
	
	case 5:
	//rozpalanie od  0,7,7 do 7,0,0
	for(int8_t n=8;n>=1;n--)
	{
		Czysc();
     eea:	0e 94 e2 05 	call	0xbc4	; 0xbc4 <Czysc>
		for(int8_t x=7 ;x>7-n;x--)
     eee:	7e 01       	movw	r14, r28
     ef0:	c7 30       	cpi	r28, 0x07	; 7
     ef2:	d1 05       	cpc	r29, r1
     ef4:	d4 f0       	brlt	.+52     	; 0xf2a <HoopSelektor+0x2ee>
     ef6:	1d c0       	rjmp	.+58     	; 0xf32 <HoopSelektor+0x2f6>
		{
			for(int8_t y=0;y<n;y++)
			{
				for(int8_t z=0;z<n;z++)
				{
					ZmienDiode(x,y,z,stanHoop);
     ef8:	21 2f       	mov	r18, r17
     efa:	4a 2d       	mov	r20, r10
     efc:	69 2d       	mov	r22, r9
     efe:	88 2d       	mov	r24, r8
     f00:	0e 94 75 02 	call	0x4ea	; 0x4ea <ZmienDiode>
		Czysc();
		for(int8_t x=7 ;x>7-n;x--)
		{
			for(int8_t y=0;y<n;y++)
			{
				for(int8_t z=0;z<n;z++)
     f04:	a3 94       	inc	r10
     f06:	a0 12       	cpse	r10, r16
     f08:	f7 cf       	rjmp	.-18     	; 0xef8 <HoopSelektor+0x2bc>
	for(int8_t n=8;n>=1;n--)
	{
		Czysc();
		for(int8_t x=7 ;x>7-n;x--)
		{
			for(int8_t y=0;y<n;y++)
     f0a:	93 94       	inc	r9
     f0c:	90 12       	cpse	r9, r16
     f0e:	02 c0       	rjmp	.+4      	; 0xf14 <HoopSelektor+0x2d8>
     f10:	03 c0       	rjmp	.+6      	; 0xf18 <HoopSelektor+0x2dc>
     f12:	9c 2c       	mov	r9, r12
	
}
void HoopSelektor(uint8_t numerHoop, uint8_t stanHoop)
{
	
	switch(numerHoop)
     f14:	ad 2c       	mov	r10, r13
     f16:	f0 cf       	rjmp	.-32     	; 0xef8 <HoopSelektor+0x2bc>
	case 5:
	//rozpalanie od  0,7,7 do 7,0,0
	for(int8_t n=8;n>=1;n--)
	{
		Czysc();
		for(int8_t x=7 ;x>7-n;x--)
     f18:	8a 94       	dec	r8
     f1a:	28 2d       	mov	r18, r8
     f1c:	33 27       	eor	r19, r19
     f1e:	27 fd       	sbrc	r18, 7
     f20:	30 95       	com	r19
     f22:	e2 16       	cp	r14, r18
     f24:	f3 06       	cpc	r15, r19
     f26:	14 f0       	brlt	.+4      	; 0xf2c <HoopSelektor+0x2f0>
     f28:	04 c0       	rjmp	.+8      	; 0xf32 <HoopSelektor+0x2f6>
     f2a:	8b 2c       	mov	r8, r11
		{
			for(int8_t y=0;y<n;y++)
     f2c:	10 16       	cp	r1, r16
     f2e:	8c f3       	brlt	.-30     	; 0xf12 <HoopSelektor+0x2d6>
     f30:	f3 cf       	rjmp	.-26     	; 0xf18 <HoopSelektor+0x2dc>
				{
					ZmienDiode(x,y,z,stanHoop);
				}
			}
		}
		WyswietlKlatke(czasWoopWoop);
     f32:	60 91 64 00 	lds	r22, 0x0064
     f36:	70 e0       	ldi	r23, 0x00	; 0
     f38:	80 e0       	ldi	r24, 0x00	; 0
     f3a:	90 e0       	ldi	r25, 0x00	; 0
     f3c:	0e 94 1d 0f 	call	0x1e3a	; 0x1e3a <__floatunsisf>
     f40:	0e 94 d8 00 	call	0x1b0	; 0x1b0 <WyswietlKlatke>
	}
	break;
	
	case 5:
	//rozpalanie od  0,7,7 do 7,0,0
	for(int8_t n=8;n>=1;n--)
     f44:	01 50       	subi	r16, 0x01	; 1
     f46:	21 96       	adiw	r28, 0x01	; 1
     f48:	01 11       	cpse	r16, r1
     f4a:	cf cf       	rjmp	.-98     	; 0xeea <HoopSelektor+0x2ae>
     f4c:	7b c0       	rjmp	.+246    	; 0x1044 <HoopSelektor+0x408>
	
}
void HoopSelektor(uint8_t numerHoop, uint8_t stanHoop)
{
	
	switch(numerHoop)
     f4e:	cf ef       	ldi	r28, 0xFF	; 255
     f50:	df ef       	ldi	r29, 0xFF	; 255
     f52:	68 94       	set
     f54:	cc 24       	eor	r12, r12
     f56:	c3 f8       	bld	r12, 3
	case 6:
	//rozpalanie od  7,7,0 do 0,07
	for(int8_t n=8;n>=1;n--)
	{
		Czysc();
		for(int8_t x=7 ;x>7-n;x--)
     f58:	0f 2e       	mov	r0, r31
     f5a:	f7 e0       	ldi	r31, 0x07	; 7
     f5c:	bf 2e       	mov	r11, r31
     f5e:	f0 2d       	mov	r31, r0
		{
			for(int8_t y=7 ;y>7-n;y--)
			{
				for(int8_t z=0;z<n;z++)
     f60:	db 2c       	mov	r13, r11
     f62:	00 e0       	ldi	r16, 0x00	; 0
     f64:	8c 2c       	mov	r8, r12
	
	case 6:
	//rozpalanie od  7,7,0 do 0,07
	for(int8_t n=8;n>=1;n--)
	{
		Czysc();
     f66:	0e 94 e2 05 	call	0xbc4	; 0xbc4 <Czysc>
		for(int8_t x=7 ;x>7-n;x--)
     f6a:	7e 01       	movw	r14, r28
     f6c:	c7 30       	cpi	r28, 0x07	; 7
     f6e:	d1 05       	cpc	r29, r1
     f70:	fc f0       	brlt	.+62     	; 0xfb0 <HoopSelektor+0x374>
     f72:	21 c0       	rjmp	.+66     	; 0xfb6 <HoopSelektor+0x37a>
		{
			for(int8_t y=7 ;y>7-n;y--)
			{
				for(int8_t z=0;z<n;z++)
     f74:	a0 2e       	mov	r10, r16
				{
					ZmienDiode(x,y,z,stanHoop);
     f76:	21 2f       	mov	r18, r17
     f78:	4a 2d       	mov	r20, r10
     f7a:	69 2d       	mov	r22, r9
     f7c:	87 2d       	mov	r24, r7
     f7e:	0e 94 75 02 	call	0x4ea	; 0x4ea <ZmienDiode>
		Czysc();
		for(int8_t x=7 ;x>7-n;x--)
		{
			for(int8_t y=7 ;y>7-n;y--)
			{
				for(int8_t z=0;z<n;z++)
     f82:	a3 94       	inc	r10
     f84:	a8 10       	cpse	r10, r8
     f86:	f7 cf       	rjmp	.-18     	; 0xf76 <HoopSelektor+0x33a>
	for(int8_t n=8;n>=1;n--)
	{
		Czysc();
		for(int8_t x=7 ;x>7-n;x--)
		{
			for(int8_t y=7 ;y>7-n;y--)
     f88:	9a 94       	dec	r9
     f8a:	29 2d       	mov	r18, r9
     f8c:	33 27       	eor	r19, r19
     f8e:	27 fd       	sbrc	r18, 7
     f90:	30 95       	com	r19
     f92:	e2 16       	cp	r14, r18
     f94:	f3 06       	cpc	r15, r19
     f96:	1c f4       	brge	.+6      	; 0xf9e <HoopSelektor+0x362>
			{
				for(int8_t z=0;z<n;z++)
     f98:	18 14       	cp	r1, r8
     f9a:	64 f3       	brlt	.-40     	; 0xf74 <HoopSelektor+0x338>
     f9c:	f5 cf       	rjmp	.-22     	; 0xf88 <HoopSelektor+0x34c>
	case 6:
	//rozpalanie od  7,7,0 do 0,07
	for(int8_t n=8;n>=1;n--)
	{
		Czysc();
		for(int8_t x=7 ;x>7-n;x--)
     f9e:	7a 94       	dec	r7
     fa0:	27 2d       	mov	r18, r7
     fa2:	33 27       	eor	r19, r19
     fa4:	27 fd       	sbrc	r18, 7
     fa6:	30 95       	com	r19
     fa8:	e2 16       	cp	r14, r18
     faa:	f3 06       	cpc	r15, r19
     fac:	14 f0       	brlt	.+4      	; 0xfb2 <HoopSelektor+0x376>
     fae:	03 c0       	rjmp	.+6      	; 0xfb6 <HoopSelektor+0x37a>
     fb0:	7b 2c       	mov	r7, r11
		{
			for(int8_t y=7 ;y>7-n;y--)
			{
				for(int8_t z=0;z<n;z++)
     fb2:	9d 2c       	mov	r9, r13
     fb4:	f1 cf       	rjmp	.-30     	; 0xf98 <HoopSelektor+0x35c>
				{
					ZmienDiode(x,y,z,stanHoop);
				}
			}
		}
		WyswietlKlatke(czasWoopWoop);
     fb6:	60 91 64 00 	lds	r22, 0x0064
     fba:	70 e0       	ldi	r23, 0x00	; 0
     fbc:	80 e0       	ldi	r24, 0x00	; 0
     fbe:	90 e0       	ldi	r25, 0x00	; 0
     fc0:	0e 94 1d 0f 	call	0x1e3a	; 0x1e3a <__floatunsisf>
     fc4:	0e 94 d8 00 	call	0x1b0	; 0x1b0 <WyswietlKlatke>
     fc8:	ca 94       	dec	r12
     fca:	21 96       	adiw	r28, 0x01	; 1
	}
	break;
	
	case 6:
	//rozpalanie od  7,7,0 do 0,07
	for(int8_t n=8;n>=1;n--)
     fcc:	c1 10       	cpse	r12, r1
     fce:	ca cf       	rjmp	.-108    	; 0xf64 <HoopSelektor+0x328>
     fd0:	39 c0       	rjmp	.+114    	; 0x1044 <HoopSelektor+0x408>
	
}
void HoopSelektor(uint8_t numerHoop, uint8_t stanHoop)
{
	
	switch(numerHoop)
     fd2:	cf ef       	ldi	r28, 0xFF	; 255
     fd4:	df ef       	ldi	r29, 0xFF	; 255
     fd6:	08 e0       	ldi	r16, 0x08	; 8
	case 7:
	//rozpalanie od  0,0,7 do 7,7,0
	for(int8_t n=8;n>=1;n--)
	{
		Czysc();
		for(int8_t x=0;x<n;x++)
     fd8:	b1 2c       	mov	r11, r1
		{
			for(int8_t y=0;y<n;y++)
			{
				for(int8_t z=7 ;z>7-n;z--)
     fda:	cb 2c       	mov	r12, r11
     fdc:	0f 2e       	mov	r0, r31
     fde:	f7 e0       	ldi	r31, 0x07	; 7
     fe0:	df 2e       	mov	r13, r31
     fe2:	f0 2d       	mov	r31, r0
	
	case 7:
	//rozpalanie od  0,0,7 do 7,7,0
	for(int8_t n=8;n>=1;n--)
	{
		Czysc();
     fe4:	0e 94 e2 05 	call	0xbc4	; 0xbc4 <Czysc>
		for(int8_t x=0;x<n;x++)
     fe8:	10 16       	cp	r1, r16
     fea:	dc f0       	brlt	.+54     	; 0x1022 <HoopSelektor+0x3e6>
     fec:	1e c0       	rjmp	.+60     	; 0x102a <HoopSelektor+0x3ee>
		{
			for(int8_t y=0;y<n;y++)
			{
				for(int8_t z=7 ;z>7-n;z--)
     fee:	ad 2c       	mov	r10, r13
				{
					ZmienDiode(x,y,z,stanHoop);
     ff0:	21 2f       	mov	r18, r17
     ff2:	4a 2d       	mov	r20, r10
     ff4:	69 2d       	mov	r22, r9
     ff6:	88 2d       	mov	r24, r8
     ff8:	0e 94 75 02 	call	0x4ea	; 0x4ea <ZmienDiode>
		Czysc();
		for(int8_t x=0;x<n;x++)
		{
			for(int8_t y=0;y<n;y++)
			{
				for(int8_t z=7 ;z>7-n;z--)
     ffc:	aa 94       	dec	r10
     ffe:	2a 2d       	mov	r18, r10
    1000:	33 27       	eor	r19, r19
    1002:	27 fd       	sbrc	r18, 7
    1004:	30 95       	com	r19
    1006:	e2 16       	cp	r14, r18
    1008:	f3 06       	cpc	r15, r19
    100a:	94 f3       	brlt	.-28     	; 0xff0 <HoopSelektor+0x3b4>
	for(int8_t n=8;n>=1;n--)
	{
		Czysc();
		for(int8_t x=0;x<n;x++)
		{
			for(int8_t y=0;y<n;y++)
    100c:	93 94       	inc	r9
    100e:	90 16       	cp	r9, r16
    1010:	21 f0       	breq	.+8      	; 0x101a <HoopSelektor+0x3de>
			{
				for(int8_t z=7 ;z>7-n;z--)
    1012:	c7 30       	cpi	r28, 0x07	; 7
    1014:	d1 05       	cpc	r29, r1
    1016:	5c f3       	brlt	.-42     	; 0xfee <HoopSelektor+0x3b2>
    1018:	f9 cf       	rjmp	.-14     	; 0x100c <HoopSelektor+0x3d0>
	case 7:
	//rozpalanie od  0,0,7 do 7,7,0
	for(int8_t n=8;n>=1;n--)
	{
		Czysc();
		for(int8_t x=0;x<n;x++)
    101a:	83 94       	inc	r8
    101c:	80 12       	cpse	r8, r16
    101e:	03 c0       	rjmp	.+6      	; 0x1026 <HoopSelektor+0x3ea>
    1020:	04 c0       	rjmp	.+8      	; 0x102a <HoopSelektor+0x3ee>
    1022:	8b 2c       	mov	r8, r11
		{
			for(int8_t y=0;y<n;y++)
			{
				for(int8_t z=7 ;z>7-n;z--)
    1024:	7e 01       	movw	r14, r28
    1026:	9c 2c       	mov	r9, r12
    1028:	f4 cf       	rjmp	.-24     	; 0x1012 <HoopSelektor+0x3d6>
				{
					ZmienDiode(x,y,z,stanHoop);
				}
			}
		}
		WyswietlKlatke(czasWoopWoop);
    102a:	60 91 64 00 	lds	r22, 0x0064
    102e:	70 e0       	ldi	r23, 0x00	; 0
    1030:	80 e0       	ldi	r24, 0x00	; 0
    1032:	90 e0       	ldi	r25, 0x00	; 0
    1034:	0e 94 1d 0f 	call	0x1e3a	; 0x1e3a <__floatunsisf>
    1038:	0e 94 d8 00 	call	0x1b0	; 0x1b0 <WyswietlKlatke>
	}
	break;
	
	case 7:
	//rozpalanie od  0,0,7 do 7,7,0
	for(int8_t n=8;n>=1;n--)
    103c:	01 50       	subi	r16, 0x01	; 1
    103e:	21 96       	adiw	r28, 0x01	; 1
    1040:	01 11       	cpse	r16, r1
    1042:	d0 cf       	rjmp	.-96     	; 0xfe4 <HoopSelektor+0x3a8>
		WyswietlKlatke(czasWoopWoop);
	}
	break;
}
	
}
    1044:	df 91       	pop	r29
    1046:	cf 91       	pop	r28
    1048:	1f 91       	pop	r17
    104a:	0f 91       	pop	r16
    104c:	ff 90       	pop	r15
    104e:	ef 90       	pop	r14
    1050:	df 90       	pop	r13
    1052:	cf 90       	pop	r12
    1054:	bf 90       	pop	r11
    1056:	af 90       	pop	r10
    1058:	9f 90       	pop	r9
    105a:	8f 90       	pop	r8
    105c:	7f 90       	pop	r7
    105e:	08 95       	ret

00001060 <HoopHoop>:
	}
	break;
	}
}
void HoopHoop(int liczba_iteracji)
{
    1060:	cf 92       	push	r12
    1062:	df 92       	push	r13
    1064:	ef 92       	push	r14
    1066:	ff 92       	push	r15
    1068:	0f 93       	push	r16
    106a:	1f 93       	push	r17
    106c:	cf 93       	push	r28
    106e:	df 93       	push	r29
    1070:	8c 01       	movw	r16, r24
	Czysc();
    1072:	0e 94 e2 05 	call	0xbc4	; 0xbc4 <Czysc>
	srand(TCNT0);
    1076:	82 b7       	in	r24, 0x32	; 50
    1078:	90 e0       	ldi	r25, 0x00	; 0
    107a:	0e 94 29 10 	call	0x2052	; 0x2052 <srand>
	uint8_t numerWoop1=0;
	uint8_t numerWoop2=0;
	for(int i=0;i<=liczba_iteracji;i++)
    107e:	11 23       	and	r17, r17
    1080:	c4 f1       	brlt	.+112    	; 0x10f2 <HoopHoop+0x92>
	{
		if(stan!=HOOPHOOP) break;
    1082:	80 91 bf 03 	lds	r24, 0x03BF
    1086:	84 30       	cpi	r24, 0x04	; 4
    1088:	a1 f5       	brne	.+104    	; 0x10f2 <HoopHoop+0x92>
{
	Czysc();
	srand(TCNT0);
	uint8_t numerWoop1=0;
	uint8_t numerWoop2=0;
	for(int i=0;i<=liczba_iteracji;i++)
    108a:	c0 e0       	ldi	r28, 0x00	; 0
    108c:	d0 e0       	ldi	r29, 0x00	; 0
    108e:	04 c0       	rjmp	.+8      	; 0x1098 <HoopHoop+0x38>
	{
		if(stan!=HOOPHOOP) break;
    1090:	80 91 bf 03 	lds	r24, 0x03BF
    1094:	84 30       	cpi	r24, 0x04	; 4
    1096:	69 f5       	brne	.+90     	; 0x10f2 <HoopHoop+0x92>
		numerWoop1=rand()%8;
    1098:	0e 94 24 10 	call	0x2048	; 0x2048 <rand>
    109c:	6c 01       	movw	r12, r24
		numerWoop2=rand()%8;
    109e:	0e 94 24 10 	call	0x2048	; 0x2048 <rand>
    10a2:	7c 01       	movw	r14, r24
	uint8_t numerWoop1=0;
	uint8_t numerWoop2=0;
	for(int i=0;i<=liczba_iteracji;i++)
	{
		if(stan!=HOOPHOOP) break;
		numerWoop1=rand()%8;
    10a4:	c6 01       	movw	r24, r12
    10a6:	87 70       	andi	r24, 0x07	; 7
    10a8:	90 78       	andi	r25, 0x80	; 128
    10aa:	99 23       	and	r25, r25
    10ac:	24 f4       	brge	.+8      	; 0x10b6 <HoopHoop+0x56>
    10ae:	01 97       	sbiw	r24, 0x01	; 1
    10b0:	88 6f       	ori	r24, 0xF8	; 248
    10b2:	9f 6f       	ori	r25, 0xFF	; 255
    10b4:	01 96       	adiw	r24, 0x01	; 1
		numerWoop2=rand()%8;
		WoopSelektor(numerWoop1,1);
    10b6:	61 e0       	ldi	r22, 0x01	; 1
    10b8:	0e 94 e7 03 	call	0x7ce	; 0x7ce <WoopSelektor>
	uint8_t numerWoop2=0;
	for(int i=0;i<=liczba_iteracji;i++)
	{
		if(stan!=HOOPHOOP) break;
		numerWoop1=rand()%8;
		numerWoop2=rand()%8;
    10bc:	c7 01       	movw	r24, r14
    10be:	87 70       	andi	r24, 0x07	; 7
    10c0:	90 78       	andi	r25, 0x80	; 128
    10c2:	99 23       	and	r25, r25
    10c4:	24 f4       	brge	.+8      	; 0x10ce <HoopHoop+0x6e>
    10c6:	01 97       	sbiw	r24, 0x01	; 1
    10c8:	88 6f       	ori	r24, 0xF8	; 248
    10ca:	9f 6f       	ori	r25, 0xFF	; 255
    10cc:	01 96       	adiw	r24, 0x01	; 1
		WoopSelektor(numerWoop1,1);
		HoopSelektor(numerWoop2,1);
    10ce:	61 e0       	ldi	r22, 0x01	; 1
    10d0:	0e 94 1e 06 	call	0xc3c	; 0xc3c <HoopSelektor>
		Czysc();
    10d4:	0e 94 e2 05 	call	0xbc4	; 0xbc4 <Czysc>
		WyswietlKlatke(czasWoopWoop);
    10d8:	60 91 64 00 	lds	r22, 0x0064
    10dc:	70 e0       	ldi	r23, 0x00	; 0
    10de:	80 e0       	ldi	r24, 0x00	; 0
    10e0:	90 e0       	ldi	r25, 0x00	; 0
    10e2:	0e 94 1d 0f 	call	0x1e3a	; 0x1e3a <__floatunsisf>
    10e6:	0e 94 d8 00 	call	0x1b0	; 0x1b0 <WyswietlKlatke>
{
	Czysc();
	srand(TCNT0);
	uint8_t numerWoop1=0;
	uint8_t numerWoop2=0;
	for(int i=0;i<=liczba_iteracji;i++)
    10ea:	21 96       	adiw	r28, 0x01	; 1
    10ec:	0c 17       	cp	r16, r28
    10ee:	1d 07       	cpc	r17, r29
    10f0:	7c f6       	brge	.-98     	; 0x1090 <HoopHoop+0x30>
		Czysc();
		WyswietlKlatke(czasWoopWoop);
	}
	
	
}
    10f2:	df 91       	pop	r29
    10f4:	cf 91       	pop	r28
    10f6:	1f 91       	pop	r17
    10f8:	0f 91       	pop	r16
    10fa:	ff 90       	pop	r15
    10fc:	ef 90       	pop	r14
    10fe:	df 90       	pop	r13
    1100:	cf 90       	pop	r12
    1102:	08 95       	ret

00001104 <WoopWoop>:
			ZmienDiode(x,y,z,0);
		}
	}
}
void WoopWoop(int liczba_iteracji)
{
    1104:	cf 92       	push	r12
    1106:	df 92       	push	r13
    1108:	ef 92       	push	r14
    110a:	ff 92       	push	r15
    110c:	0f 93       	push	r16
    110e:	1f 93       	push	r17
    1110:	cf 93       	push	r28
    1112:	df 93       	push	r29
    1114:	7c 01       	movw	r14, r24
	Czysc();
    1116:	0e 94 e2 05 	call	0xbc4	; 0xbc4 <Czysc>
	srand(TCNT0);
    111a:	82 b7       	in	r24, 0x32	; 50
    111c:	90 e0       	ldi	r25, 0x00	; 0
    111e:	0e 94 29 10 	call	0x2052	; 0x2052 <srand>
	uint8_t numerWoop1=0;
	uint8_t numerWoop2=0;
	for(int i=0;i<=liczba_iteracji;i++)
    1122:	ff 20       	and	r15, r15
    1124:	6c f1       	brlt	.+90     	; 0x1180 <WoopWoop+0x7c>
	{
		if(stan!=WOOPWOOP) break;
    1126:	80 91 bf 03 	lds	r24, 0x03BF
    112a:	83 30       	cpi	r24, 0x03	; 3
    112c:	49 f5       	brne	.+82     	; 0x1180 <WoopWoop+0x7c>
{
	Czysc();
	srand(TCNT0);
	uint8_t numerWoop1=0;
	uint8_t numerWoop2=0;
	for(int i=0;i<=liczba_iteracji;i++)
    112e:	c0 e0       	ldi	r28, 0x00	; 0
    1130:	d0 e0       	ldi	r29, 0x00	; 0
    1132:	04 c0       	rjmp	.+8      	; 0x113c <WoopWoop+0x38>
	{
		if(stan!=WOOPWOOP) break;
    1134:	80 91 bf 03 	lds	r24, 0x03BF
    1138:	83 30       	cpi	r24, 0x03	; 3
    113a:	11 f5       	brne	.+68     	; 0x1180 <WoopWoop+0x7c>
		 numerWoop1=rand()%8;
    113c:	0e 94 24 10 	call	0x2048	; 0x2048 <rand>
    1140:	6c 01       	movw	r12, r24
		numerWoop2=rand()%8;
    1142:	0e 94 24 10 	call	0x2048	; 0x2048 <rand>
    1146:	8c 01       	movw	r16, r24
	uint8_t numerWoop1=0;
	uint8_t numerWoop2=0;
	for(int i=0;i<=liczba_iteracji;i++)
	{
		if(stan!=WOOPWOOP) break;
		 numerWoop1=rand()%8;
    1148:	c6 01       	movw	r24, r12
    114a:	87 70       	andi	r24, 0x07	; 7
    114c:	90 78       	andi	r25, 0x80	; 128
    114e:	99 23       	and	r25, r25
    1150:	24 f4       	brge	.+8      	; 0x115a <WoopWoop+0x56>
    1152:	01 97       	sbiw	r24, 0x01	; 1
    1154:	88 6f       	ori	r24, 0xF8	; 248
    1156:	9f 6f       	ori	r25, 0xFF	; 255
    1158:	01 96       	adiw	r24, 0x01	; 1
		numerWoop2=rand()%8;
		WoopSelektor(numerWoop1,1);
    115a:	61 e0       	ldi	r22, 0x01	; 1
    115c:	0e 94 e7 03 	call	0x7ce	; 0x7ce <WoopSelektor>
	uint8_t numerWoop2=0;
	for(int i=0;i<=liczba_iteracji;i++)
	{
		if(stan!=WOOPWOOP) break;
		 numerWoop1=rand()%8;
		numerWoop2=rand()%8;
    1160:	c8 01       	movw	r24, r16
    1162:	87 70       	andi	r24, 0x07	; 7
    1164:	90 78       	andi	r25, 0x80	; 128
    1166:	99 23       	and	r25, r25
    1168:	24 f4       	brge	.+8      	; 0x1172 <WoopWoop+0x6e>
    116a:	01 97       	sbiw	r24, 0x01	; 1
    116c:	88 6f       	ori	r24, 0xF8	; 248
    116e:	9f 6f       	ori	r25, 0xFF	; 255
    1170:	01 96       	adiw	r24, 0x01	; 1
		WoopSelektor(numerWoop1,1);
		WoopSelektor(numerWoop2,0);
    1172:	60 e0       	ldi	r22, 0x00	; 0
    1174:	0e 94 e7 03 	call	0x7ce	; 0x7ce <WoopSelektor>
{
	Czysc();
	srand(TCNT0);
	uint8_t numerWoop1=0;
	uint8_t numerWoop2=0;
	for(int i=0;i<=liczba_iteracji;i++)
    1178:	21 96       	adiw	r28, 0x01	; 1
    117a:	ec 16       	cp	r14, r28
    117c:	fd 06       	cpc	r15, r29
    117e:	d4 f6       	brge	.-76     	; 0x1134 <WoopWoop+0x30>
		WoopSelektor(numerWoop1,1);
		WoopSelektor(numerWoop2,0);
	}
	
	
}
    1180:	df 91       	pop	r29
    1182:	cf 91       	pop	r28
    1184:	1f 91       	pop	r17
    1186:	0f 91       	pop	r16
    1188:	ff 90       	pop	r15
    118a:	ef 90       	pop	r14
    118c:	df 90       	pop	r13
    118e:	cf 90       	pop	r12
    1190:	08 95       	ret

00001192 <Plaszczyzna>:
		}
		ZmienDiode(x,y,7,0);
	}
}
void Plaszczyzna(int liczba_iteracji)
{
    1192:	af 92       	push	r10
    1194:	bf 92       	push	r11
    1196:	df 92       	push	r13
    1198:	ef 92       	push	r14
    119a:	1f 93       	push	r17
    119c:	cf 93       	push	r28
    119e:	df 93       	push	r29
    11a0:	5c 01       	movw	r10, r24
	Czysc();
    11a2:	0e 94 e2 05 	call	0xbc4	; 0xbc4 <Czysc>
	
	for(int i=0;i<liczba_iteracji;i++)
    11a6:	1a 14       	cp	r1, r10
    11a8:	1b 04       	cpc	r1, r11
    11aa:	0c f0       	brlt	.+2      	; 0x11ae <Plaszczyzna+0x1c>
    11ac:	90 c0       	rjmp	.+288    	; 0x12ce <Plaszczyzna+0x13c>
	{
		if(stan!=PLASZCZYZNA) break;
    11ae:	80 91 bf 03 	lds	r24, 0x03BF
    11b2:	82 30       	cpi	r24, 0x02	; 2
    11b4:	09 f0       	breq	.+2      	; 0x11b8 <Plaszczyzna+0x26>
    11b6:	8b c0       	rjmp	.+278    	; 0x12ce <Plaszczyzna+0x13c>
}
void Plaszczyzna(int liczba_iteracji)
{
	Czysc();
	
	for(int i=0;i<liczba_iteracji;i++)
    11b8:	c0 e0       	ldi	r28, 0x00	; 0
    11ba:	d0 e0       	ldi	r29, 0x00	; 0
	{
		if(stan!=PLASZCZYZNA) break;
		//Plaszczyzna XY
		for(uint8_t z=0;z<8;z++)//zmien wysokosc
    11bc:	dd 24       	eor	r13, r13
    11be:	d3 94       	inc	r13
			ZapalXY( z);
		}
		for(uint8_t z=0;z<8;z++)//zmien wysokosc
		{
			if(stan!=PLASZCZYZNA) break;
			ZapalXY(7- z);
    11c0:	0f 2e       	mov	r0, r31
    11c2:	f6 e0       	ldi	r31, 0x06	; 6
    11c4:	ef 2e       	mov	r14, r31
    11c6:	f0 2d       	mov	r31, r0
    11c8:	05 c0       	rjmp	.+10     	; 0x11d4 <Plaszczyzna+0x42>
{
	Czysc();
	
	for(int i=0;i<liczba_iteracji;i++)
	{
		if(stan!=PLASZCZYZNA) break;
    11ca:	80 91 bf 03 	lds	r24, 0x03BF
    11ce:	82 30       	cpi	r24, 0x02	; 2
    11d0:	09 f0       	breq	.+2      	; 0x11d4 <Plaszczyzna+0x42>
    11d2:	7d c0       	rjmp	.+250    	; 0x12ce <Plaszczyzna+0x13c>
		//Plaszczyzna XY
		for(uint8_t z=0;z<8;z++)//zmien wysokosc
		{
			if(stan!=PLASZCZYZNA) break;
    11d4:	80 91 bf 03 	lds	r24, 0x03BF
    11d8:	82 30       	cpi	r24, 0x02	; 2
    11da:	09 f4       	brne	.+2      	; 0x11de <Plaszczyzna+0x4c>
    11dc:	73 c0       	rjmp	.+230    	; 0x12c4 <Plaszczyzna+0x132>
    11de:	45 c0       	rjmp	.+138    	; 0x126a <Plaszczyzna+0xd8>
    11e0:	80 91 bf 03 	lds	r24, 0x03BF
    11e4:	82 30       	cpi	r24, 0x02	; 2
    11e6:	09 f0       	breq	.+2      	; 0x11ea <Plaszczyzna+0x58>
    11e8:	40 c0       	rjmp	.+128    	; 0x126a <Plaszczyzna+0xd8>
			ZapalXY( z);
    11ea:	81 2f       	mov	r24, r17
    11ec:	0e 94 51 03 	call	0x6a2	; 0x6a2 <ZapalXY>
	
	for(int i=0;i<liczba_iteracji;i++)
	{
		if(stan!=PLASZCZYZNA) break;
		//Plaszczyzna XY
		for(uint8_t z=0;z<8;z++)//zmien wysokosc
    11f0:	1f 5f       	subi	r17, 0xFF	; 255
    11f2:	18 30       	cpi	r17, 0x08	; 8
    11f4:	a9 f7       	brne	.-22     	; 0x11e0 <Plaszczyzna+0x4e>
    11f6:	39 c0       	rjmp	.+114    	; 0x126a <Plaszczyzna+0xd8>
			if(stan!=PLASZCZYZNA) break;
			ZapalXY( z);
		}
		for(uint8_t z=0;z<8;z++)//zmien wysokosc
		{
			if(stan!=PLASZCZYZNA) break;
    11f8:	80 91 bf 03 	lds	r24, 0x03BF
    11fc:	82 30       	cpi	r24, 0x02	; 2
    11fe:	c9 f5       	brne	.+114    	; 0x1272 <Plaszczyzna+0xe0>
			ZapalXY(7- z);
    1200:	81 2f       	mov	r24, r17
    1202:	0e 94 51 03 	call	0x6a2	; 0x6a2 <ZapalXY>
    1206:	11 50       	subi	r17, 0x01	; 1
    1208:	b8 f7       	brcc	.-18     	; 0x11f8 <Plaszczyzna+0x66>
    120a:	33 c0       	rjmp	.+102    	; 0x1272 <Plaszczyzna+0xe0>
		}
		//Plaszczyzna XZ
		for(uint8_t y=0;y<8;y++)//zmien wysokosc
		{
			if(stan!=PLASZCZYZNA) break;
    120c:	80 91 bf 03 	lds	r24, 0x03BF
    1210:	82 30       	cpi	r24, 0x02	; 2
    1212:	99 f5       	brne	.+102    	; 0x127a <Plaszczyzna+0xe8>
			ZapalXZ( y);
    1214:	81 2f       	mov	r24, r17
    1216:	0e 94 83 03 	call	0x706	; 0x706 <ZapalXZ>
		{
			if(stan!=PLASZCZYZNA) break;
			ZapalXY(7- z);
		}
		//Plaszczyzna XZ
		for(uint8_t y=0;y<8;y++)//zmien wysokosc
    121a:	1f 5f       	subi	r17, 0xFF	; 255
    121c:	18 30       	cpi	r17, 0x08	; 8
    121e:	b1 f7       	brne	.-20     	; 0x120c <Plaszczyzna+0x7a>
    1220:	2c c0       	rjmp	.+88     	; 0x127a <Plaszczyzna+0xe8>
			if(stan!=PLASZCZYZNA) break;
			ZapalXZ( y);
		}
		for(uint8_t y=0;y<8;y++)//zmien wysokosc
		{
			if(stan!=PLASZCZYZNA) break;
    1222:	80 91 bf 03 	lds	r24, 0x03BF
    1226:	82 30       	cpi	r24, 0x02	; 2
    1228:	61 f5       	brne	.+88     	; 0x1282 <Plaszczyzna+0xf0>
			ZapalXZ(7- y);
    122a:	81 2f       	mov	r24, r17
    122c:	0e 94 83 03 	call	0x706	; 0x706 <ZapalXZ>
    1230:	11 50       	subi	r17, 0x01	; 1
    1232:	b8 f7       	brcc	.-18     	; 0x1222 <Plaszczyzna+0x90>
    1234:	26 c0       	rjmp	.+76     	; 0x1282 <Plaszczyzna+0xf0>
		}
		//Plaszczyzna YZ
		for(uint8_t x=0;x<8;x++)//zmien wysokosc
		{
			if(stan!=PLASZCZYZNA) break;
    1236:	80 91 bf 03 	lds	r24, 0x03BF
    123a:	82 30       	cpi	r24, 0x02	; 2
    123c:	31 f5       	brne	.+76     	; 0x128a <Plaszczyzna+0xf8>
			ZapalYZ( x);
    123e:	81 2f       	mov	r24, r17
    1240:	0e 94 b5 03 	call	0x76a	; 0x76a <ZapalYZ>
		{
			if(stan!=PLASZCZYZNA) break;
			ZapalXZ(7- y);
		}
		//Plaszczyzna YZ
		for(uint8_t x=0;x<8;x++)//zmien wysokosc
    1244:	1f 5f       	subi	r17, 0xFF	; 255
    1246:	18 30       	cpi	r17, 0x08	; 8
    1248:	b1 f7       	brne	.-20     	; 0x1236 <Plaszczyzna+0xa4>
    124a:	1f c0       	rjmp	.+62     	; 0x128a <Plaszczyzna+0xf8>
			if(stan!=PLASZCZYZNA) break;
			ZapalYZ( x);
		}
		for(uint8_t x=0;x<8;x++)//zmien wysokosc
		{
			if(stan!=PLASZCZYZNA) break;
    124c:	80 91 bf 03 	lds	r24, 0x03BF
    1250:	82 30       	cpi	r24, 0x02	; 2
    1252:	29 f4       	brne	.+10     	; 0x125e <Plaszczyzna+0xcc>
			ZapalYZ(7- x);
    1254:	81 2f       	mov	r24, r17
    1256:	0e 94 b5 03 	call	0x76a	; 0x76a <ZapalYZ>
    125a:	11 50       	subi	r17, 0x01	; 1
    125c:	b8 f7       	brcc	.-18     	; 0x124c <Plaszczyzna+0xba>
}
void Plaszczyzna(int liczba_iteracji)
{
	Czysc();
	
	for(int i=0;i<liczba_iteracji;i++)
    125e:	21 96       	adiw	r28, 0x01	; 1
    1260:	ca 15       	cp	r28, r10
    1262:	db 05       	cpc	r29, r11
    1264:	09 f0       	breq	.+2      	; 0x1268 <Plaszczyzna+0xd6>
    1266:	b1 cf       	rjmp	.-158    	; 0x11ca <Plaszczyzna+0x38>
    1268:	32 c0       	rjmp	.+100    	; 0x12ce <Plaszczyzna+0x13c>
			if(stan!=PLASZCZYZNA) break;
			ZapalXY( z);
		}
		for(uint8_t z=0;z<8;z++)//zmien wysokosc
		{
			if(stan!=PLASZCZYZNA) break;
    126a:	80 91 bf 03 	lds	r24, 0x03BF
    126e:	82 30       	cpi	r24, 0x02	; 2
    1270:	21 f1       	breq	.+72     	; 0x12ba <Plaszczyzna+0x128>
			ZapalXY(7- z);
		}
		//Plaszczyzna XZ
		for(uint8_t y=0;y<8;y++)//zmien wysokosc
		{
			if(stan!=PLASZCZYZNA) break;
    1272:	80 91 bf 03 	lds	r24, 0x03BF
    1276:	82 30       	cpi	r24, 0x02	; 2
    1278:	d9 f0       	breq	.+54     	; 0x12b0 <Plaszczyzna+0x11e>
			ZapalXZ( y);
		}
		for(uint8_t y=0;y<8;y++)//zmien wysokosc
		{
			if(stan!=PLASZCZYZNA) break;
    127a:	80 91 bf 03 	lds	r24, 0x03BF
    127e:	82 30       	cpi	r24, 0x02	; 2
    1280:	91 f0       	breq	.+36     	; 0x12a6 <Plaszczyzna+0x114>
			ZapalXZ(7- y);
		}
		//Plaszczyzna YZ
		for(uint8_t x=0;x<8;x++)//zmien wysokosc
		{
			if(stan!=PLASZCZYZNA) break;
    1282:	80 91 bf 03 	lds	r24, 0x03BF
    1286:	82 30       	cpi	r24, 0x02	; 2
    1288:	49 f0       	breq	.+18     	; 0x129c <Plaszczyzna+0x10a>
			ZapalYZ( x);
		}
		for(uint8_t x=0;x<8;x++)//zmien wysokosc
		{
			if(stan!=PLASZCZYZNA) break;
    128a:	80 91 bf 03 	lds	r24, 0x03BF
    128e:	82 30       	cpi	r24, 0x02	; 2
    1290:	31 f7       	brne	.-52     	; 0x125e <Plaszczyzna+0xcc>
			ZapalYZ(7- x);
    1292:	87 e0       	ldi	r24, 0x07	; 7
    1294:	0e 94 b5 03 	call	0x76a	; 0x76a <ZapalYZ>
    1298:	1e 2d       	mov	r17, r14
    129a:	d8 cf       	rjmp	.-80     	; 0x124c <Plaszczyzna+0xba>
		}
		//Plaszczyzna YZ
		for(uint8_t x=0;x<8;x++)//zmien wysokosc
		{
			if(stan!=PLASZCZYZNA) break;
			ZapalYZ( x);
    129c:	80 e0       	ldi	r24, 0x00	; 0
    129e:	0e 94 b5 03 	call	0x76a	; 0x76a <ZapalYZ>
		{
			if(stan!=PLASZCZYZNA) break;
			ZapalXZ(7- y);
		}
		//Plaszczyzna YZ
		for(uint8_t x=0;x<8;x++)//zmien wysokosc
    12a2:	1d 2d       	mov	r17, r13
    12a4:	c8 cf       	rjmp	.-112    	; 0x1236 <Plaszczyzna+0xa4>
			ZapalXZ( y);
		}
		for(uint8_t y=0;y<8;y++)//zmien wysokosc
		{
			if(stan!=PLASZCZYZNA) break;
			ZapalXZ(7- y);
    12a6:	87 e0       	ldi	r24, 0x07	; 7
    12a8:	0e 94 83 03 	call	0x706	; 0x706 <ZapalXZ>
    12ac:	1e 2d       	mov	r17, r14
    12ae:	b9 cf       	rjmp	.-142    	; 0x1222 <Plaszczyzna+0x90>
		}
		//Plaszczyzna XZ
		for(uint8_t y=0;y<8;y++)//zmien wysokosc
		{
			if(stan!=PLASZCZYZNA) break;
			ZapalXZ( y);
    12b0:	80 e0       	ldi	r24, 0x00	; 0
    12b2:	0e 94 83 03 	call	0x706	; 0x706 <ZapalXZ>
		{
			if(stan!=PLASZCZYZNA) break;
			ZapalXY(7- z);
		}
		//Plaszczyzna XZ
		for(uint8_t y=0;y<8;y++)//zmien wysokosc
    12b6:	1d 2d       	mov	r17, r13
    12b8:	a9 cf       	rjmp	.-174    	; 0x120c <Plaszczyzna+0x7a>
			ZapalXY( z);
		}
		for(uint8_t z=0;z<8;z++)//zmien wysokosc
		{
			if(stan!=PLASZCZYZNA) break;
			ZapalXY(7- z);
    12ba:	87 e0       	ldi	r24, 0x07	; 7
    12bc:	0e 94 51 03 	call	0x6a2	; 0x6a2 <ZapalXY>
    12c0:	1e 2d       	mov	r17, r14
    12c2:	9a cf       	rjmp	.-204    	; 0x11f8 <Plaszczyzna+0x66>
		if(stan!=PLASZCZYZNA) break;
		//Plaszczyzna XY
		for(uint8_t z=0;z<8;z++)//zmien wysokosc
		{
			if(stan!=PLASZCZYZNA) break;
			ZapalXY( z);
    12c4:	80 e0       	ldi	r24, 0x00	; 0
    12c6:	0e 94 51 03 	call	0x6a2	; 0x6a2 <ZapalXY>
	
	for(int i=0;i<liczba_iteracji;i++)
	{
		if(stan!=PLASZCZYZNA) break;
		//Plaszczyzna XY
		for(uint8_t z=0;z<8;z++)//zmien wysokosc
    12ca:	1d 2d       	mov	r17, r13
    12cc:	89 cf       	rjmp	.-238    	; 0x11e0 <Plaszczyzna+0x4e>
			ZapalYZ(7- x);
		}
		
	}
	
}
    12ce:	df 91       	pop	r29
    12d0:	cf 91       	pop	r28
    12d2:	1f 91       	pop	r17
    12d4:	ef 90       	pop	r14
    12d6:	df 90       	pop	r13
    12d8:	bf 90       	pop	r11
    12da:	af 90       	pop	r10
    12dc:	08 95       	ret

000012de <Deszcz>:
	return 0b00000000;
	}
	
}
void Deszcz (int liczba_iteracji)
{
    12de:	2f 92       	push	r2
    12e0:	3f 92       	push	r3
    12e2:	4f 92       	push	r4
    12e4:	5f 92       	push	r5
    12e6:	6f 92       	push	r6
    12e8:	7f 92       	push	r7
    12ea:	8f 92       	push	r8
    12ec:	9f 92       	push	r9
    12ee:	af 92       	push	r10
    12f0:	bf 92       	push	r11
    12f2:	cf 92       	push	r12
    12f4:	df 92       	push	r13
    12f6:	ef 92       	push	r14
    12f8:	ff 92       	push	r15
    12fa:	0f 93       	push	r16
    12fc:	1f 93       	push	r17
    12fe:	cf 93       	push	r28
    1300:	df 93       	push	r29
    1302:	00 d0       	rcall	.+0      	; 0x1304 <Deszcz+0x26>
    1304:	00 d0       	rcall	.+0      	; 0x1306 <Deszcz+0x28>
    1306:	cd b7       	in	r28, 0x3d	; 61
    1308:	de b7       	in	r29, 0x3e	; 62
    130a:	2c 01       	movw	r4, r24
	int x;
	int y;
	srand(TCNT0);//aktualny stan timera
    130c:	82 b7       	in	r24, 0x32	; 50
    130e:	90 e0       	ldi	r25, 0x00	; 0
    1310:	0e 94 29 10 	call	0x2052	; 0x2052 <srand>
	Czysc();
    1314:	0e 94 e2 05 	call	0xbc4	; 0xbc4 <Czysc>
	
	for(int k=0;k<liczba_iteracji;k++)
    1318:	14 14       	cp	r1, r4
    131a:	15 04       	cpc	r1, r5
    131c:	0c f0       	brlt	.+2      	; 0x1320 <Deszcz+0x42>
    131e:	98 c0       	rjmp	.+304    	; 0x1450 <Deszcz+0x172>
	{
		if(stan!=DESZCZ) break;
    1320:	80 91 bf 03 	lds	r24, 0x03BF
    1324:	81 30       	cpi	r24, 0x01	; 1
    1326:	09 f0       	breq	.+2      	; 0x132a <Deszcz+0x4c>
    1328:	93 c0       	rjmp	.+294    	; 0x1450 <Deszcz+0x172>
	int x;
	int y;
	srand(TCNT0);//aktualny stan timera
	Czysc();
	
	for(int k=0;k<liczba_iteracji;k++)
    132a:	81 2c       	mov	r8, r1
    132c:	91 2c       	mov	r9, r1
	{
		if(stan!=DESZCZ) break;
		x=rand()%7;
		y=rand()%7;
    132e:	0f 2e       	mov	r0, r31
    1330:	f7 e0       	ldi	r31, 0x07	; 7
    1332:	6f 2e       	mov	r6, r31
    1334:	71 2c       	mov	r7, r1
    1336:	f0 2d       	mov	r31, r0
		ZmienDiode(x,y,7,1);
		WyswietlKlatke(100);
		for(int i=0;i<8;i++)
    1338:	21 2c       	mov	r2, r1
    133a:	31 2c       	mov	r3, r1
    133c:	3a 82       	std	Y+2, r3	; 0x02
    133e:	29 82       	std	Y+1, r2	; 0x01
    1340:	05 c0       	rjmp	.+10     	; 0x134c <Deszcz+0x6e>
	srand(TCNT0);//aktualny stan timera
	Czysc();
	
	for(int k=0;k<liczba_iteracji;k++)
	{
		if(stan!=DESZCZ) break;
    1342:	80 91 bf 03 	lds	r24, 0x03BF
    1346:	81 30       	cpi	r24, 0x01	; 1
    1348:	09 f0       	breq	.+2      	; 0x134c <Deszcz+0x6e>
    134a:	82 c0       	rjmp	.+260    	; 0x1450 <Deszcz+0x172>
		x=rand()%7;
    134c:	0e 94 24 10 	call	0x2048	; 0x2048 <rand>
    1350:	8c 01       	movw	r16, r24
		y=rand()%7;
    1352:	0e 94 24 10 	call	0x2048	; 0x2048 <rand>
    1356:	b3 01       	movw	r22, r6
    1358:	0e 94 ab 0f 	call	0x1f56	; 0x1f56 <__divmodhi4>
    135c:	38 2f       	mov	r19, r24
		ZmienDiode(x,y,7,1);
    135e:	28 2e       	mov	r2, r24
	Czysc();
	
	for(int k=0;k<liczba_iteracji;k++)
	{
		if(stan!=DESZCZ) break;
		x=rand()%7;
    1360:	c8 01       	movw	r24, r16
    1362:	b3 01       	movw	r22, r6
    1364:	0e 94 ab 0f 	call	0x1f56	; 0x1f56 <__divmodhi4>
		y=rand()%7;
		ZmienDiode(x,y,7,1);
    1368:	38 2e       	mov	r3, r24
    136a:	21 e0       	ldi	r18, 0x01	; 1
    136c:	47 e0       	ldi	r20, 0x07	; 7
    136e:	63 2f       	mov	r22, r19
    1370:	0e 94 75 02 	call	0x4ea	; 0x4ea <ZmienDiode>
		WyswietlKlatke(100);
    1374:	60 e0       	ldi	r22, 0x00	; 0
    1376:	70 e0       	ldi	r23, 0x00	; 0
    1378:	88 ec       	ldi	r24, 0xC8	; 200
    137a:	92 e4       	ldi	r25, 0x42	; 66
    137c:	0e 94 d8 00 	call	0x1b0	; 0x1b0 <WyswietlKlatke>
		for(int i=0;i<8;i++)
		{
			if(stan!=DESZCZ) break;
    1380:	80 91 bf 03 	lds	r24, 0x03BF
    1384:	81 30       	cpi	r24, 0x01	; 1
    1386:	09 f0       	breq	.+2      	; 0x138a <Deszcz+0xac>
    1388:	56 c0       	rjmp	.+172    	; 0x1436 <Deszcz+0x158>
    138a:	05 e9       	ldi	r16, 0x95	; 149
    138c:	10 e0       	ldi	r17, 0x00	; 0
    138e:	0f 2e       	mov	r0, r31
    1390:	fd e9       	ldi	r31, 0x9D	; 157
    1392:	af 2e       	mov	r10, r31
    1394:	f0 e0       	ldi	r31, 0x00	; 0
    1396:	bf 2e       	mov	r11, r31
    1398:	f0 2d       	mov	r31, r0
    139a:	4d e8       	ldi	r20, 0x8D	; 141
    139c:	50 e0       	ldi	r21, 0x00	; 0
    139e:	25 e8       	ldi	r18, 0x85	; 133
    13a0:	30 e0       	ldi	r19, 0x00	; 0
    13a2:	8d e7       	ldi	r24, 0x7D	; 125
    13a4:	90 e0       	ldi	r25, 0x00	; 0
    13a6:	65 e7       	ldi	r22, 0x75	; 117
    13a8:	70 e0       	ldi	r23, 0x00	; 0
    13aa:	ed e6       	ldi	r30, 0x6D	; 109
    13ac:	f0 e0       	ldi	r31, 0x00	; 0
    13ae:	0f 2e       	mov	r0, r31
    13b0:	f5 e6       	ldi	r31, 0x65	; 101
    13b2:	cf 2e       	mov	r12, r31
    13b4:	f0 e0       	ldi	r31, 0x00	; 0
    13b6:	df 2e       	mov	r13, r31
    13b8:	f0 2d       	mov	r31, r0
		if(stan!=DESZCZ) break;
		x=rand()%7;
		y=rand()%7;
		ZmienDiode(x,y,7,1);
		WyswietlKlatke(100);
		for(int i=0;i<8;i++)
    13ba:	e9 80       	ldd	r14, Y+1	; 0x01
    13bc:	fa 80       	ldd	r15, Y+2	; 0x02
    13be:	3c 83       	std	Y+4, r19	; 0x04
    13c0:	2b 83       	std	Y+3, r18	; 0x03
    13c2:	9b 01       	movw	r18, r22
    13c4:	da 01       	movw	r26, r20
    13c6:	af 01       	movw	r20, r30
    13c8:	11 c0       	rjmp	.+34     	; 0x13ec <Deszcz+0x10e>
		{
			if(stan!=DESZCZ) break;
    13ca:	60 91 bf 03 	lds	r22, 0x03BF
    13ce:	0f 5f       	subi	r16, 0xFF	; 255
    13d0:	1f 4f       	sbci	r17, 0xFF	; 255
    13d2:	11 96       	adiw	r26, 0x01	; 1
    13d4:	eb 81       	ldd	r30, Y+3	; 0x03
    13d6:	fc 81       	ldd	r31, Y+4	; 0x04
    13d8:	31 96       	adiw	r30, 0x01	; 1
    13da:	fc 83       	std	Y+4, r31	; 0x04
    13dc:	eb 83       	std	Y+3, r30	; 0x03
    13de:	01 96       	adiw	r24, 0x01	; 1
    13e0:	2f 5f       	subi	r18, 0xFF	; 255
    13e2:	3f 4f       	sbci	r19, 0xFF	; 255
    13e4:	4f 5f       	subi	r20, 0xFF	; 255
    13e6:	5f 4f       	sbci	r21, 0xFF	; 255
    13e8:	61 30       	cpi	r22, 0x01	; 1
    13ea:	29 f5       	brne	.+74     	; 0x1436 <Deszcz+0x158>
			warstwa1[i]=warstwa2[i];
    13ec:	f8 01       	movw	r30, r16
    13ee:	60 81       	ld	r22, Z
    13f0:	f5 01       	movw	r30, r10
    13f2:	61 93       	st	Z+, r22
    13f4:	5f 01       	movw	r10, r30
			warstwa2[i]=warstwa3[i];
    13f6:	6c 91       	ld	r22, X
    13f8:	f8 01       	movw	r30, r16
    13fa:	60 83       	st	Z, r22
			warstwa3[i]=warstwa4[i];
    13fc:	eb 81       	ldd	r30, Y+3	; 0x03
    13fe:	fc 81       	ldd	r31, Y+4	; 0x04
    1400:	60 81       	ld	r22, Z
    1402:	6c 93       	st	X, r22
			warstwa4[i]=warstwa5[i];
    1404:	fc 01       	movw	r30, r24
    1406:	60 81       	ld	r22, Z
    1408:	eb 81       	ldd	r30, Y+3	; 0x03
    140a:	fc 81       	ldd	r31, Y+4	; 0x04
    140c:	60 83       	st	Z, r22
			warstwa5[i]=warstwa6[i];
    140e:	f9 01       	movw	r30, r18
    1410:	60 81       	ld	r22, Z
    1412:	fc 01       	movw	r30, r24
    1414:	60 83       	st	Z, r22
			warstwa6[i]=warstwa7[i];
    1416:	fa 01       	movw	r30, r20
    1418:	60 81       	ld	r22, Z
    141a:	f9 01       	movw	r30, r18
    141c:	60 83       	st	Z, r22
			warstwa7[i]=warstwa8[i];
    141e:	f6 01       	movw	r30, r12
    1420:	61 91       	ld	r22, Z+
    1422:	6f 01       	movw	r12, r30
    1424:	fa 01       	movw	r30, r20
    1426:	60 83       	st	Z, r22
		if(stan!=DESZCZ) break;
		x=rand()%7;
		y=rand()%7;
		ZmienDiode(x,y,7,1);
		WyswietlKlatke(100);
		for(int i=0;i<8;i++)
    1428:	ff ef       	ldi	r31, 0xFF	; 255
    142a:	ef 1a       	sub	r14, r31
    142c:	ff 0a       	sbc	r15, r31
    142e:	68 e0       	ldi	r22, 0x08	; 8
    1430:	e6 16       	cp	r14, r22
    1432:	f1 04       	cpc	r15, r1
    1434:	51 f6       	brne	.-108    	; 0x13ca <Deszcz+0xec>
			warstwa5[i]=warstwa6[i];
			warstwa6[i]=warstwa7[i];
			warstwa7[i]=warstwa8[i];
			
		}
		ZmienDiode(x,y,7,0);
    1436:	20 e0       	ldi	r18, 0x00	; 0
    1438:	47 e0       	ldi	r20, 0x07	; 7
    143a:	62 2d       	mov	r22, r2
    143c:	83 2d       	mov	r24, r3
    143e:	0e 94 75 02 	call	0x4ea	; 0x4ea <ZmienDiode>
	int x;
	int y;
	srand(TCNT0);//aktualny stan timera
	Czysc();
	
	for(int k=0;k<liczba_iteracji;k++)
    1442:	8f ef       	ldi	r24, 0xFF	; 255
    1444:	88 1a       	sub	r8, r24
    1446:	98 0a       	sbc	r9, r24
    1448:	84 14       	cp	r8, r4
    144a:	95 04       	cpc	r9, r5
    144c:	09 f0       	breq	.+2      	; 0x1450 <Deszcz+0x172>
    144e:	79 cf       	rjmp	.-270    	; 0x1342 <Deszcz+0x64>
			warstwa7[i]=warstwa8[i];
			
		}
		ZmienDiode(x,y,7,0);
	}
}
    1450:	0f 90       	pop	r0
    1452:	0f 90       	pop	r0
    1454:	0f 90       	pop	r0
    1456:	0f 90       	pop	r0
    1458:	df 91       	pop	r29
    145a:	cf 91       	pop	r28
    145c:	1f 91       	pop	r17
    145e:	0f 91       	pop	r16
    1460:	ff 90       	pop	r15
    1462:	ef 90       	pop	r14
    1464:	df 90       	pop	r13
    1466:	cf 90       	pop	r12
    1468:	bf 90       	pop	r11
    146a:	af 90       	pop	r10
    146c:	9f 90       	pop	r9
    146e:	8f 90       	pop	r8
    1470:	7f 90       	pop	r7
    1472:	6f 90       	pop	r6
    1474:	5f 90       	pop	r5
    1476:	4f 90       	pop	r4
    1478:	3f 90       	pop	r3
    147a:	2f 90       	pop	r2
    147c:	08 95       	ret

0000147e <Laduj>:
	}
}
void Laduj(uint8_t n, char znak)
{
	unsigned char out = znak & 1;
	if(n<4)
    147e:	84 30       	cpi	r24, 0x04	; 4
    1480:	a0 f5       	brcc	.+104    	; 0x14ea <Laduj+0x6c>
	{
	warstwa8[n]=(uint8_t)ASCIItrans[znak][0];
    1482:	90 e0       	ldi	r25, 0x00	; 0
    1484:	e6 2f       	mov	r30, r22
    1486:	f0 e0       	ldi	r31, 0x00	; 0
    1488:	dc 01       	movw	r26, r24
    148a:	ab 59       	subi	r26, 0x9B	; 155
    148c:	bf 4f       	sbci	r27, 0xFF	; 255
    148e:	ee 0f       	add	r30, r30
    1490:	ff 1f       	adc	r31, r31
    1492:	ee 0f       	add	r30, r30
    1494:	ff 1f       	adc	r31, r31
    1496:	ee 0f       	add	r30, r30
    1498:	ff 1f       	adc	r31, r31
    149a:	ef 53       	subi	r30, 0x3F	; 63
    149c:	ff 4f       	sbci	r31, 0xFF	; 255
    149e:	20 81       	ld	r18, Z
    14a0:	2c 93       	st	X, r18
	warstwa7[n]=(uint8_t)ASCIItrans[znak][1];
    14a2:	dc 01       	movw	r26, r24
    14a4:	a3 59       	subi	r26, 0x93	; 147
    14a6:	bf 4f       	sbci	r27, 0xFF	; 255
    14a8:	21 81       	ldd	r18, Z+1	; 0x01
    14aa:	2c 93       	st	X, r18
	warstwa6[n]=(uint8_t)ASCIItrans[znak][2];
    14ac:	dc 01       	movw	r26, r24
    14ae:	ab 58       	subi	r26, 0x8B	; 139
    14b0:	bf 4f       	sbci	r27, 0xFF	; 255
    14b2:	22 81       	ldd	r18, Z+2	; 0x02
    14b4:	2c 93       	st	X, r18
	warstwa5[n]=(uint8_t)ASCIItrans[znak][3];
    14b6:	dc 01       	movw	r26, r24
    14b8:	a3 58       	subi	r26, 0x83	; 131
    14ba:	bf 4f       	sbci	r27, 0xFF	; 255
    14bc:	23 81       	ldd	r18, Z+3	; 0x03
    14be:	2c 93       	st	X, r18
	
	warstwa4[n]=(uint8_t)ASCIItrans[znak][4];
    14c0:	dc 01       	movw	r26, r24
    14c2:	ab 57       	subi	r26, 0x7B	; 123
    14c4:	bf 4f       	sbci	r27, 0xFF	; 255
    14c6:	24 81       	ldd	r18, Z+4	; 0x04
    14c8:	2c 93       	st	X, r18
	warstwa3[n]=(uint8_t)ASCIItrans[znak][5];
    14ca:	dc 01       	movw	r26, r24
    14cc:	a3 57       	subi	r26, 0x73	; 115
    14ce:	bf 4f       	sbci	r27, 0xFF	; 255
    14d0:	25 81       	ldd	r18, Z+5	; 0x05
    14d2:	2c 93       	st	X, r18
	warstwa2[n]=(uint8_t)ASCIItrans[znak][6];
    14d4:	dc 01       	movw	r26, r24
    14d6:	ab 56       	subi	r26, 0x6B	; 107
    14d8:	bf 4f       	sbci	r27, 0xFF	; 255
    14da:	26 81       	ldd	r18, Z+6	; 0x06
    14dc:	2c 93       	st	X, r18
	warstwa1[n]=(uint8_t)ASCIItrans[znak][7];
    14de:	dc 01       	movw	r26, r24
    14e0:	a3 56       	subi	r26, 0x63	; 99
    14e2:	bf 4f       	sbci	r27, 0xFF	; 255
    14e4:	27 81       	ldd	r18, Z+7	; 0x07
    14e6:	2c 93       	st	X, r18
    14e8:	08 95       	ret
	}
	else
	{
		
		warstwa8[n]=(uint8_t)ASCIItrans[znak][0];
    14ea:	90 e0       	ldi	r25, 0x00	; 0
    14ec:	e6 2f       	mov	r30, r22
    14ee:	f0 e0       	ldi	r31, 0x00	; 0
    14f0:	dc 01       	movw	r26, r24
    14f2:	ab 59       	subi	r26, 0x9B	; 155
    14f4:	bf 4f       	sbci	r27, 0xFF	; 255
    14f6:	ee 0f       	add	r30, r30
    14f8:	ff 1f       	adc	r31, r31
    14fa:	ee 0f       	add	r30, r30
    14fc:	ff 1f       	adc	r31, r31
    14fe:	ee 0f       	add	r30, r30
    1500:	ff 1f       	adc	r31, r31
    1502:	ef 53       	subi	r30, 0x3F	; 63
    1504:	ff 4f       	sbci	r31, 0xFF	; 255
    1506:	20 81       	ld	r18, Z
    1508:	2c 93       	st	X, r18
		warstwa7[n]=(uint8_t)ASCIItrans[znak][1];
    150a:	dc 01       	movw	r26, r24
    150c:	a3 59       	subi	r26, 0x93	; 147
    150e:	bf 4f       	sbci	r27, 0xFF	; 255
    1510:	21 81       	ldd	r18, Z+1	; 0x01
    1512:	2c 93       	st	X, r18
		warstwa6[n]=(uint8_t)ASCIItrans[znak][2];
    1514:	dc 01       	movw	r26, r24
    1516:	ab 58       	subi	r26, 0x8B	; 139
    1518:	bf 4f       	sbci	r27, 0xFF	; 255
    151a:	22 81       	ldd	r18, Z+2	; 0x02
    151c:	2c 93       	st	X, r18
		warstwa5[n]=(uint8_t)ASCIItrans[znak][3];
    151e:	dc 01       	movw	r26, r24
    1520:	a3 58       	subi	r26, 0x83	; 131
    1522:	bf 4f       	sbci	r27, 0xFF	; 255
    1524:	23 81       	ldd	r18, Z+3	; 0x03
    1526:	2c 93       	st	X, r18
		
		warstwa4[n]=(uint8_t)ASCIItrans[znak][4];
    1528:	dc 01       	movw	r26, r24
    152a:	ab 57       	subi	r26, 0x7B	; 123
    152c:	bf 4f       	sbci	r27, 0xFF	; 255
    152e:	24 81       	ldd	r18, Z+4	; 0x04
    1530:	2c 93       	st	X, r18
		warstwa3[n]=(uint8_t)ASCIItrans[znak][5];
    1532:	dc 01       	movw	r26, r24
    1534:	a3 57       	subi	r26, 0x73	; 115
    1536:	bf 4f       	sbci	r27, 0xFF	; 255
    1538:	25 81       	ldd	r18, Z+5	; 0x05
    153a:	2c 93       	st	X, r18
		warstwa2[n]=(uint8_t)ASCIItrans[znak][6];
    153c:	dc 01       	movw	r26, r24
    153e:	ab 56       	subi	r26, 0x6B	; 107
    1540:	bf 4f       	sbci	r27, 0xFF	; 255
    1542:	26 81       	ldd	r18, Z+6	; 0x06
    1544:	2c 93       	st	X, r18
		warstwa1[n]=(uint8_t)ASCIItrans[znak][7];
    1546:	dc 01       	movw	r26, r24
    1548:	a3 56       	subi	r26, 0x63	; 99
    154a:	bf 4f       	sbci	r27, 0xFF	; 255
    154c:	27 81       	ldd	r18, Z+7	; 0x07
    154e:	2c 93       	st	X, r18
    1550:	08 95       	ret

00001552 <WyswietlZnak>:
		WyswietlZnak(czasKlatki,buforTekst[i]);
	}
}

void WyswietlZnak(double czasKlatki,char znak)
{
    1552:	9f 92       	push	r9
    1554:	af 92       	push	r10
    1556:	bf 92       	push	r11
    1558:	cf 92       	push	r12
    155a:	df 92       	push	r13
    155c:	ef 92       	push	r14
    155e:	ff 92       	push	r15
    1560:	0f 93       	push	r16
    1562:	1f 93       	push	r17
    1564:	cf 93       	push	r28
    1566:	df 93       	push	r29
    1568:	6b 01       	movw	r12, r22
    156a:	7c 01       	movw	r14, r24
    156c:	94 2e       	mov	r9, r20
	
	for(uint8_t i=0;i<12;i++)
	{
	if(stan!=WYSWIETLTEKST) break;
    156e:	80 91 bf 03 	lds	r24, 0x03BF
    1572:	85 30       	cpi	r24, 0x05	; 5
    1574:	89 f5       	brne	.+98     	; 0x15d8 <WyswietlZnak+0x86>
    1576:	aa 24       	eor	r10, r10
    1578:	aa 94       	dec	r10
    157a:	ba 2c       	mov	r11, r10
    157c:	0e ef       	ldi	r16, 0xFE	; 254
    157e:	1f ef       	ldi	r17, 0xFF	; 255
    1580:	c0 e0       	ldi	r28, 0x00	; 0
    1582:	d0 e0       	ldi	r29, 0x00	; 0
    1584:	0a c0       	rjmp	.+20     	; 0x159a <WyswietlZnak+0x48>
    1586:	80 91 bf 03 	lds	r24, 0x03BF
    158a:	21 96       	adiw	r28, 0x01	; 1
    158c:	0f 5f       	subi	r16, 0xFF	; 255
    158e:	1f 4f       	sbci	r17, 0xFF	; 255
    1590:	9f ef       	ldi	r25, 0xFF	; 255
    1592:	a9 1a       	sub	r10, r25
    1594:	b9 0a       	sbc	r11, r25
    1596:	85 30       	cpi	r24, 0x05	; 5
    1598:	f9 f4       	brne	.+62     	; 0x15d8 <WyswietlZnak+0x86>
		
		Czysc();
    159a:	0e 94 e2 05 	call	0xbc4	; 0xbc4 <Czysc>
		if(i<8)
    159e:	c8 30       	cpi	r28, 0x08	; 8
    15a0:	28 f4       	brcc	.+10     	; 0x15ac <WyswietlZnak+0x5a>
		{
			
			Laduj(i,znak);
    15a2:	69 2d       	mov	r22, r9
    15a4:	70 e0       	ldi	r23, 0x00	; 0
    15a6:	ce 01       	movw	r24, r28
    15a8:	0e 94 3f 0a 	call	0x147e	; 0x147e <Laduj>
			
		}
		if(i>0 && i<9)
    15ac:	97 e0       	ldi	r25, 0x07	; 7
    15ae:	9a 15       	cp	r25, r10
    15b0:	28 f0       	brcs	.+10     	; 0x15bc <WyswietlZnak+0x6a>
		{
			Laduj(i-1,znak);
    15b2:	69 2d       	mov	r22, r9
    15b4:	70 e0       	ldi	r23, 0x00	; 0
    15b6:	c5 01       	movw	r24, r10
    15b8:	0e 94 3f 0a 	call	0x147e	; 0x147e <Laduj>
		}
		if(i>1 && i<10)
    15bc:	08 30       	cpi	r16, 0x08	; 8
    15be:	28 f4       	brcc	.+10     	; 0x15ca <WyswietlZnak+0x78>
		{
			Laduj(i-2,znak);
    15c0:	69 2d       	mov	r22, r9
    15c2:	70 e0       	ldi	r23, 0x00	; 0
    15c4:	c8 01       	movw	r24, r16
    15c6:	0e 94 3f 0a 	call	0x147e	; 0x147e <Laduj>
		}
		WyswietlKlatke(czasKlatki);
    15ca:	c7 01       	movw	r24, r14
    15cc:	b6 01       	movw	r22, r12
    15ce:	0e 94 d8 00 	call	0x1b0	; 0x1b0 <WyswietlKlatke>
}

void WyswietlZnak(double czasKlatki,char znak)
{
	
	for(uint8_t i=0;i<12;i++)
    15d2:	cb 30       	cpi	r28, 0x0B	; 11
    15d4:	d1 05       	cpc	r29, r1
    15d6:	b9 f6       	brne	.-82     	; 0x1586 <WyswietlZnak+0x34>
		{
			Laduj(i-2,znak);
		}
		WyswietlKlatke(czasKlatki);
	}
}
    15d8:	df 91       	pop	r29
    15da:	cf 91       	pop	r28
    15dc:	1f 91       	pop	r17
    15de:	0f 91       	pop	r16
    15e0:	ff 90       	pop	r15
    15e2:	ef 90       	pop	r14
    15e4:	df 90       	pop	r13
    15e6:	cf 90       	pop	r12
    15e8:	bf 90       	pop	r11
    15ea:	af 90       	pop	r10
    15ec:	9f 90       	pop	r9
    15ee:	08 95       	ret

000015f0 <WyswietlTekst>:
		warstwa8[i]=0;
	}
}

void WyswietlTekst(uint8_t iloscZnakow)
{
    15f0:	0f 93       	push	r16
    15f2:	1f 93       	push	r17
    15f4:	cf 93       	push	r28
    15f6:	df 93       	push	r29
	double czasKlatki=100;
	for(uint8_t i=0; i<iloscZnakow;i++)
    15f8:	88 23       	and	r24, r24
    15fa:	d1 f0       	breq	.+52     	; 0x1630 <WyswietlTekst+0x40>
	{
		if(stan!=WYSWIETLTEKST) break;
    15fc:	90 91 bf 03 	lds	r25, 0x03BF
    1600:	95 30       	cpi	r25, 0x05	; 5
    1602:	b1 f4       	brne	.+44     	; 0x1630 <WyswietlTekst+0x40>
    1604:	c0 ec       	ldi	r28, 0xC0	; 192
    1606:	d3 e0       	ldi	r29, 0x03	; 3
		warstwa7[i]=0;
		warstwa8[i]=0;
	}
}

void WyswietlTekst(uint8_t iloscZnakow)
    1608:	81 50       	subi	r24, 0x01	; 1
    160a:	08 2f       	mov	r16, r24
    160c:	10 e0       	ldi	r17, 0x00	; 0
    160e:	0f 53       	subi	r16, 0x3F	; 63
    1610:	1c 4f       	sbci	r17, 0xFC	; 252
    1612:	04 c0       	rjmp	.+8      	; 0x161c <WyswietlTekst+0x2c>
{
	double czasKlatki=100;
	for(uint8_t i=0; i<iloscZnakow;i++)
	{
		if(stan!=WYSWIETLTEKST) break;
    1614:	80 91 bf 03 	lds	r24, 0x03BF
    1618:	85 30       	cpi	r24, 0x05	; 5
    161a:	51 f4       	brne	.+20     	; 0x1630 <WyswietlTekst+0x40>
		WyswietlZnak(czasKlatki,buforTekst[i]);
    161c:	49 91       	ld	r20, Y+
    161e:	60 e0       	ldi	r22, 0x00	; 0
    1620:	70 e0       	ldi	r23, 0x00	; 0
    1622:	88 ec       	ldi	r24, 0xC8	; 200
    1624:	92 e4       	ldi	r25, 0x42	; 66
    1626:	0e 94 a9 0a 	call	0x1552	; 0x1552 <WyswietlZnak>
}

void WyswietlTekst(uint8_t iloscZnakow)
{
	double czasKlatki=100;
	for(uint8_t i=0; i<iloscZnakow;i++)
    162a:	c0 17       	cp	r28, r16
    162c:	d1 07       	cpc	r29, r17
    162e:	91 f7       	brne	.-28     	; 0x1614 <WyswietlTekst+0x24>
	{
		if(stan!=WYSWIETLTEKST) break;
		WyswietlZnak(czasKlatki,buforTekst[i]);
	}
}
    1630:	df 91       	pop	r29
    1632:	cf 91       	pop	r28
    1634:	1f 91       	pop	r17
    1636:	0f 91       	pop	r16
    1638:	08 95       	ret

0000163a <MacierzxMacierz>:
		}
	}
	ZmienDiode(jedzenie[0],jedzenie[1],jedzenie[2],1);
}
void MacierzxMacierz(int8_t M1[3][3],int8_t M2[3][3] )
{
    163a:	2f 92       	push	r2
    163c:	3f 92       	push	r3
    163e:	4f 92       	push	r4
    1640:	5f 92       	push	r5
    1642:	6f 92       	push	r6
    1644:	7f 92       	push	r7
    1646:	8f 92       	push	r8
    1648:	9f 92       	push	r9
    164a:	af 92       	push	r10
    164c:	bf 92       	push	r11
    164e:	cf 92       	push	r12
    1650:	df 92       	push	r13
    1652:	ef 92       	push	r14
    1654:	ff 92       	push	r15
    1656:	0f 93       	push	r16
    1658:	1f 93       	push	r17
    165a:	cf 93       	push	r28
    165c:	df 93       	push	r29
    165e:	cd b7       	in	r28, 0x3d	; 61
    1660:	de b7       	in	r29, 0x3e	; 62
    1662:	29 97       	sbiw	r28, 0x09	; 9
    1664:	0f b6       	in	r0, 0x3f	; 63
    1666:	f8 94       	cli
    1668:	de bf       	out	0x3e, r29	; 62
    166a:	0f be       	out	0x3f, r0	; 63
    166c:	cd bf       	out	0x3d, r28	; 61
			
		}
	}
	ZmienDiode(jedzenie[0],jedzenie[1],jedzenie[2],1);
}
void MacierzxMacierz(int8_t M1[3][3],int8_t M2[3][3] )
    166e:	02 96       	adiw	r24, 0x02	; 2
{
	int8_t tabC[3][3];
	for(int i=0; i<3; i++)
    1670:	00 e0       	ldi	r16, 0x00	; 0
    1672:	10 e0       	ldi	r17, 0x00	; 0
    1674:	76 2e       	mov	r7, r22
    1676:	87 2e       	mov	r8, r23
			
		}
	}
	ZmienDiode(jedzenie[0],jedzenie[1],jedzenie[2],1);
}
void MacierzxMacierz(int8_t M1[3][3],int8_t M2[3][3] )
    1678:	a1 2c       	mov	r10, r1
    167a:	b1 2c       	mov	r11, r1
    167c:	3d c0       	rjmp	.+122    	; 0x16f8 <MacierzxMacierz+0xbe>
	int8_t tabC[3][3];
	for(int i=0; i<3; i++)
	{
		for(int j=0; j<3; j++)
		{
			tabC[i][j]=0;
    167e:	10 82       	st	Z, r1
			for(int k=0; k<3; k++)
			{
				tabC[i][j] += M1[i][k] * M2[k][j];
    1680:	da 01       	movw	r26, r20
    1682:	5d 90       	ld	r5, X+
    1684:	ad 01       	movw	r20, r26
    1686:	d6 01       	movw	r26, r12
    1688:	6c 90       	ld	r6, X
			
		}
	}
	ZmienDiode(jedzenie[0],jedzenie[1],jedzenie[2],1);
}
void MacierzxMacierz(int8_t M1[3][3],int8_t M2[3][3] )
    168a:	1b 01       	movw	r2, r22
    168c:	22 0e       	add	r2, r18
    168e:	33 1e       	adc	r3, r19
		for(int j=0; j<3; j++)
		{
			tabC[i][j]=0;
			for(int k=0; k<3; k++)
			{
				tabC[i][j] += M1[i][k] * M2[k][j];
    1690:	d1 01       	movw	r26, r2
    1692:	13 96       	adiw	r26, 0x03	; 3
    1694:	4c 90       	ld	r4, X
    1696:	d7 01       	movw	r26, r14
    1698:	9c 90       	ld	r9, X
    169a:	49 9c       	mul	r4, r9
    169c:	90 2c       	mov	r9, r0
    169e:	11 24       	eor	r1, r1
    16a0:	56 9c       	mul	r5, r6
    16a2:	90 0c       	add	r9, r0
    16a4:	11 24       	eor	r1, r1
    16a6:	d1 01       	movw	r26, r2
    16a8:	16 96       	adiw	r26, 0x06	; 6
    16aa:	6c 90       	ld	r6, X
    16ac:	dc 01       	movw	r26, r24
    16ae:	5c 90       	ld	r5, X
    16b0:	a9 2d       	mov	r26, r9
    16b2:	65 9c       	mul	r6, r5
    16b4:	a0 0d       	add	r26, r0
    16b6:	11 24       	eor	r1, r1
    16b8:	a1 93       	st	Z+, r26
void MacierzxMacierz(int8_t M1[3][3],int8_t M2[3][3] )
{
	int8_t tabC[3][3];
	for(int i=0; i<3; i++)
	{
		for(int j=0; j<3; j++)
    16ba:	2f 5f       	subi	r18, 0xFF	; 255
    16bc:	3f 4f       	sbci	r19, 0xFF	; 255
    16be:	23 30       	cpi	r18, 0x03	; 3
    16c0:	31 05       	cpc	r19, r1
    16c2:	e9 f6       	brne	.-70     	; 0x167e <MacierzxMacierz+0x44>
	ZmienDiode(jedzenie[0],jedzenie[1],jedzenie[2],1);
}
void MacierzxMacierz(int8_t M1[3][3],int8_t M2[3][3] )
{
	int8_t tabC[3][3];
	for(int i=0; i<3; i++)
    16c4:	0f 5f       	subi	r16, 0xFF	; 255
    16c6:	1f 4f       	sbci	r17, 0xFF	; 255
    16c8:	03 96       	adiw	r24, 0x03	; 3
    16ca:	03 30       	cpi	r16, 0x03	; 3
    16cc:	11 05       	cpc	r17, r1
    16ce:	a1 f4       	brne	.+40     	; 0x16f8 <MacierzxMacierz+0xbe>
	}	
	for(int i=0;i<3;i++)
	{
		for(int j=0;j<3;j++)
		{
			M2[i][j]=tabC[i][j];
    16d0:	89 81       	ldd	r24, Y+1	; 0x01
    16d2:	fb 01       	movw	r30, r22
    16d4:	80 83       	st	Z, r24
    16d6:	8a 81       	ldd	r24, Y+2	; 0x02
    16d8:	81 83       	std	Z+1, r24	; 0x01
    16da:	8b 81       	ldd	r24, Y+3	; 0x03
    16dc:	82 83       	std	Z+2, r24	; 0x02
    16de:	8c 81       	ldd	r24, Y+4	; 0x04
    16e0:	83 83       	std	Z+3, r24	; 0x03
    16e2:	8d 81       	ldd	r24, Y+5	; 0x05
    16e4:	84 83       	std	Z+4, r24	; 0x04
    16e6:	8e 81       	ldd	r24, Y+6	; 0x06
    16e8:	85 83       	std	Z+5, r24	; 0x05
    16ea:	8f 81       	ldd	r24, Y+7	; 0x07
    16ec:	86 83       	std	Z+6, r24	; 0x06
    16ee:	88 85       	ldd	r24, Y+8	; 0x08
    16f0:	87 83       	std	Z+7, r24	; 0x07
    16f2:	89 85       	ldd	r24, Y+9	; 0x09
    16f4:	80 87       	std	Z+8, r24	; 0x08
    16f6:	17 c0       	rjmp	.+46     	; 0x1726 <MacierzxMacierz+0xec>
			
		}
	}
	ZmienDiode(jedzenie[0],jedzenie[1],jedzenie[2],1);
}
void MacierzxMacierz(int8_t M1[3][3],int8_t M2[3][3] )
    16f8:	f8 01       	movw	r30, r16
    16fa:	ee 0f       	add	r30, r30
    16fc:	ff 1f       	adc	r31, r31
    16fe:	e0 0f       	add	r30, r16
    1700:	f1 1f       	adc	r31, r17
    1702:	21 e0       	ldi	r18, 0x01	; 1
    1704:	30 e0       	ldi	r19, 0x00	; 0
    1706:	2c 0f       	add	r18, r28
    1708:	3d 1f       	adc	r19, r29
    170a:	e2 0f       	add	r30, r18
    170c:	f3 1f       	adc	r31, r19
    170e:	47 2d       	mov	r20, r7
    1710:	58 2d       	mov	r21, r8
    1712:	95 01       	movw	r18, r10
    1714:	6c 01       	movw	r12, r24
    1716:	a2 e0       	ldi	r26, 0x02	; 2
    1718:	ca 1a       	sub	r12, r26
    171a:	d1 08       	sbc	r13, r1
    171c:	7c 01       	movw	r14, r24
    171e:	b1 e0       	ldi	r27, 0x01	; 1
    1720:	eb 1a       	sub	r14, r27
    1722:	f1 08       	sbc	r15, r1
    1724:	ac cf       	rjmp	.-168    	; 0x167e <MacierzxMacierz+0x44>
		{
			M2[i][j]=tabC[i][j];
		}
	}
	
}
    1726:	29 96       	adiw	r28, 0x09	; 9
    1728:	0f b6       	in	r0, 0x3f	; 63
    172a:	f8 94       	cli
    172c:	de bf       	out	0x3e, r29	; 62
    172e:	0f be       	out	0x3f, r0	; 63
    1730:	cd bf       	out	0x3d, r28	; 61
    1732:	df 91       	pop	r29
    1734:	cf 91       	pop	r28
    1736:	1f 91       	pop	r17
    1738:	0f 91       	pop	r16
    173a:	ff 90       	pop	r15
    173c:	ef 90       	pop	r14
    173e:	df 90       	pop	r13
    1740:	cf 90       	pop	r12
    1742:	bf 90       	pop	r11
    1744:	af 90       	pop	r10
    1746:	9f 90       	pop	r9
    1748:	8f 90       	pop	r8
    174a:	7f 90       	pop	r7
    174c:	6f 90       	pop	r6
    174e:	5f 90       	pop	r5
    1750:	4f 90       	pop	r4
    1752:	3f 90       	pop	r3
    1754:	2f 90       	pop	r2
    1756:	08 95       	ret

00001758 <MinMacierzxMacierz>:
void MinMacierzxMacierz(int8_t M1[3][3],int8_t M2[3][3] )
{
    1758:	2f 92       	push	r2
    175a:	3f 92       	push	r3
    175c:	4f 92       	push	r4
    175e:	5f 92       	push	r5
    1760:	6f 92       	push	r6
    1762:	7f 92       	push	r7
    1764:	8f 92       	push	r8
    1766:	9f 92       	push	r9
    1768:	af 92       	push	r10
    176a:	bf 92       	push	r11
    176c:	cf 92       	push	r12
    176e:	df 92       	push	r13
    1770:	ef 92       	push	r14
    1772:	ff 92       	push	r15
    1774:	0f 93       	push	r16
    1776:	1f 93       	push	r17
    1778:	cf 93       	push	r28
    177a:	df 93       	push	r29
    177c:	cd b7       	in	r28, 0x3d	; 61
    177e:	de b7       	in	r29, 0x3e	; 62
    1780:	29 97       	sbiw	r28, 0x09	; 9
    1782:	0f b6       	in	r0, 0x3f	; 63
    1784:	f8 94       	cli
    1786:	de bf       	out	0x3e, r29	; 62
    1788:	0f be       	out	0x3f, r0	; 63
    178a:	cd bf       	out	0x3d, r28	; 61
			M2[i][j]=tabC[i][j];
		}
	}
	
}
void MinMacierzxMacierz(int8_t M1[3][3],int8_t M2[3][3] )
    178c:	02 96       	adiw	r24, 0x02	; 2
{
	int8_t tabC[3][3];
	for(int i=0; i<3; i++)
    178e:	00 e0       	ldi	r16, 0x00	; 0
    1790:	10 e0       	ldi	r17, 0x00	; 0
    1792:	76 2e       	mov	r7, r22
    1794:	87 2e       	mov	r8, r23
			M2[i][j]=tabC[i][j];
		}
	}
	
}
void MinMacierzxMacierz(int8_t M1[3][3],int8_t M2[3][3] )
    1796:	a1 2c       	mov	r10, r1
    1798:	b1 2c       	mov	r11, r1
    179a:	31 c0       	rjmp	.+98     	; 0x17fe <MinMacierzxMacierz+0xa6>
	int8_t tabC[3][3];
	for(int i=0; i<3; i++)
	{
		for(int j=0; j<3; j++)
		{
			tabC[i][j]=0;
    179c:	10 82       	st	Z, r1
			for(int k=0; k<3; k++)
			{
				tabC[i][j] += M1[i][k] * M2[k][j];
    179e:	da 01       	movw	r26, r20
    17a0:	5d 90       	ld	r5, X+
    17a2:	ad 01       	movw	r20, r26
    17a4:	d6 01       	movw	r26, r12
    17a6:	6c 90       	ld	r6, X
			M2[i][j]=tabC[i][j];
		}
	}
	
}
void MinMacierzxMacierz(int8_t M1[3][3],int8_t M2[3][3] )
    17a8:	1b 01       	movw	r2, r22
    17aa:	22 0e       	add	r2, r18
    17ac:	33 1e       	adc	r3, r19
		for(int j=0; j<3; j++)
		{
			tabC[i][j]=0;
			for(int k=0; k<3; k++)
			{
				tabC[i][j] += M1[i][k] * M2[k][j];
    17ae:	d1 01       	movw	r26, r2
    17b0:	13 96       	adiw	r26, 0x03	; 3
    17b2:	4c 90       	ld	r4, X
    17b4:	d7 01       	movw	r26, r14
    17b6:	9c 90       	ld	r9, X
    17b8:	49 9c       	mul	r4, r9
    17ba:	90 2c       	mov	r9, r0
    17bc:	11 24       	eor	r1, r1
    17be:	56 9c       	mul	r5, r6
    17c0:	90 0c       	add	r9, r0
    17c2:	11 24       	eor	r1, r1
    17c4:	d1 01       	movw	r26, r2
    17c6:	16 96       	adiw	r26, 0x06	; 6
    17c8:	6c 90       	ld	r6, X
    17ca:	dc 01       	movw	r26, r24
    17cc:	5c 90       	ld	r5, X
    17ce:	a9 2d       	mov	r26, r9
    17d0:	65 9c       	mul	r6, r5
    17d2:	a0 0d       	add	r26, r0
    17d4:	11 24       	eor	r1, r1
    17d6:	a1 93       	st	Z+, r26
void MinMacierzxMacierz(int8_t M1[3][3],int8_t M2[3][3] )
{
	int8_t tabC[3][3];
	for(int i=0; i<3; i++)
	{
		for(int j=0; j<3; j++)
    17d8:	2f 5f       	subi	r18, 0xFF	; 255
    17da:	3f 4f       	sbci	r19, 0xFF	; 255
    17dc:	23 30       	cpi	r18, 0x03	; 3
    17de:	31 05       	cpc	r19, r1
    17e0:	e9 f6       	brne	.-70     	; 0x179c <MinMacierzxMacierz+0x44>
	
}
void MinMacierzxMacierz(int8_t M1[3][3],int8_t M2[3][3] )
{
	int8_t tabC[3][3];
	for(int i=0; i<3; i++)
    17e2:	0f 5f       	subi	r16, 0xFF	; 255
    17e4:	1f 4f       	sbci	r17, 0xFF	; 255
    17e6:	03 96       	adiw	r24, 0x03	; 3
    17e8:	03 30       	cpi	r16, 0x03	; 3
    17ea:	11 05       	cpc	r17, r1
    17ec:	41 f4       	brne	.+16     	; 0x17fe <MinMacierzxMacierz+0xa6>
    17ee:	fe 01       	movw	r30, r28
    17f0:	33 96       	adiw	r30, 0x03	; 3
			M2[i][j]=tabC[i][j];
		}
	}
	
}
void MinMacierzxMacierz(int8_t M1[3][3],int8_t M2[3][3] )
    17f2:	6e 5f       	subi	r22, 0xFE	; 254
    17f4:	7f 4f       	sbci	r23, 0xFF	; 255
    17f6:	ae 01       	movw	r20, r28
    17f8:	44 5f       	subi	r20, 0xF4	; 244
    17fa:	5f 4f       	sbci	r21, 0xFF	; 255
    17fc:	17 c0       	rjmp	.+46     	; 0x182c <MinMacierzxMacierz+0xd4>
    17fe:	f8 01       	movw	r30, r16
    1800:	ee 0f       	add	r30, r30
    1802:	ff 1f       	adc	r31, r31
    1804:	e0 0f       	add	r30, r16
    1806:	f1 1f       	adc	r31, r17
    1808:	21 e0       	ldi	r18, 0x01	; 1
    180a:	30 e0       	ldi	r19, 0x00	; 0
    180c:	2c 0f       	add	r18, r28
    180e:	3d 1f       	adc	r19, r29
    1810:	e2 0f       	add	r30, r18
    1812:	f3 1f       	adc	r31, r19
    1814:	47 2d       	mov	r20, r7
    1816:	58 2d       	mov	r21, r8
    1818:	95 01       	movw	r18, r10
    181a:	6c 01       	movw	r12, r24
    181c:	a2 e0       	ldi	r26, 0x02	; 2
    181e:	ca 1a       	sub	r12, r26
    1820:	d1 08       	sbc	r13, r1
    1822:	7c 01       	movw	r14, r24
    1824:	b1 e0       	ldi	r27, 0x01	; 1
    1826:	eb 1a       	sub	r14, r27
    1828:	f1 08       	sbc	r15, r1
    182a:	b8 cf       	rjmp	.-144    	; 0x179c <MinMacierzxMacierz+0x44>
    182c:	cb 01       	movw	r24, r22
    182e:	02 97       	sbiw	r24, 0x02	; 2
    1830:	9f 01       	movw	r18, r30
    1832:	22 50       	subi	r18, 0x02	; 2
    1834:	31 09       	sbc	r19, r1
	}
	for(int i=0;i<3;i++)
	{
		for(int j=0;j<3;j++)
		{
			M2[i][j]=-tabC[i][j];
    1836:	d9 01       	movw	r26, r18
    1838:	2c 91       	ld	r18, X
    183a:	21 95       	neg	r18
    183c:	dc 01       	movw	r26, r24
    183e:	2c 93       	st	X, r18
			M2[i][j]=tabC[i][j];
		}
	}
	
}
void MinMacierzxMacierz(int8_t M1[3][3],int8_t M2[3][3] )
    1840:	cb 01       	movw	r24, r22
    1842:	01 97       	sbiw	r24, 0x01	; 1
    1844:	9f 01       	movw	r18, r30
    1846:	21 50       	subi	r18, 0x01	; 1
    1848:	31 09       	sbc	r19, r1
	}
	for(int i=0;i<3;i++)
	{
		for(int j=0;j<3;j++)
		{
			M2[i][j]=-tabC[i][j];
    184a:	d9 01       	movw	r26, r18
    184c:	2c 91       	ld	r18, X
    184e:	21 95       	neg	r18
    1850:	dc 01       	movw	r26, r24
    1852:	2c 93       	st	X, r18
    1854:	80 81       	ld	r24, Z
    1856:	81 95       	neg	r24
    1858:	db 01       	movw	r26, r22
    185a:	8c 93       	st	X, r24
    185c:	33 96       	adiw	r30, 0x03	; 3
    185e:	6d 5f       	subi	r22, 0xFD	; 253
    1860:	7f 4f       	sbci	r23, 0xFF	; 255
			{
				tabC[i][j] += M1[i][k] * M2[k][j];
			}
		}
	}
	for(int i=0;i<3;i++)
    1862:	e4 17       	cp	r30, r20
    1864:	f5 07       	cpc	r31, r21
    1866:	11 f7       	brne	.-60     	; 0x182c <MinMacierzxMacierz+0xd4>
		{
			M2[i][j]=-tabC[i][j];
		}
	}
	
    1868:	29 96       	adiw	r28, 0x09	; 9
    186a:	0f b6       	in	r0, 0x3f	; 63
    186c:	f8 94       	cli
    186e:	de bf       	out	0x3e, r29	; 62
    1870:	0f be       	out	0x3f, r0	; 63
    1872:	cd bf       	out	0x3d, r28	; 61
    1874:	df 91       	pop	r29
    1876:	cf 91       	pop	r28
    1878:	1f 91       	pop	r17
    187a:	0f 91       	pop	r16
    187c:	ff 90       	pop	r15
    187e:	ef 90       	pop	r14
    1880:	df 90       	pop	r13
    1882:	cf 90       	pop	r12
    1884:	bf 90       	pop	r11
    1886:	af 90       	pop	r10
    1888:	9f 90       	pop	r9
    188a:	8f 90       	pop	r8
    188c:	7f 90       	pop	r7
    188e:	6f 90       	pop	r6
    1890:	5f 90       	pop	r5
    1892:	4f 90       	pop	r4
    1894:	3f 90       	pop	r3
    1896:	2f 90       	pop	r2
    1898:	08 95       	ret

0000189a <Snake>:
		warstwa1[n]=(uint8_t)ASCIItrans[znak][7];
	}
}

void Snake()
{
    189a:	2f 92       	push	r2
    189c:	3f 92       	push	r3
    189e:	4f 92       	push	r4
    18a0:	5f 92       	push	r5
    18a2:	6f 92       	push	r6
    18a4:	7f 92       	push	r7
    18a6:	8f 92       	push	r8
    18a8:	9f 92       	push	r9
    18aa:	af 92       	push	r10
    18ac:	bf 92       	push	r11
    18ae:	cf 92       	push	r12
    18b0:	df 92       	push	r13
    18b2:	ef 92       	push	r14
    18b4:	ff 92       	push	r15
    18b6:	0f 93       	push	r16
    18b8:	1f 93       	push	r17
    18ba:	cf 93       	push	r28
    18bc:	df 93       	push	r29
    18be:	cd b7       	in	r28, 0x3d	; 61
    18c0:	de b7       	in	r29, 0x3e	; 62
    18c2:	c2 52       	subi	r28, 0x22	; 34
    18c4:	d6 40       	sbci	r29, 0x06	; 6
    18c6:	0f b6       	in	r0, 0x3f	; 63
    18c8:	f8 94       	cli
    18ca:	de bf       	out	0x3e, r29	; 62
    18cc:	0f be       	out	0x3f, r0	; 63
    18ce:	cd bf       	out	0x3d, r28	; 61
	srand(TCNT0);
    18d0:	82 b7       	in	r24, 0x32	; 50
    18d2:	90 e0       	ldi	r25, 0x00	; 0
    18d4:	0e 94 29 10 	call	0x2052	; 0x2052 <srand>
	unsigned int dlugoscWeza = 1;
	uint8_t waz[512][3];
	
	int8_t jedzenie[3];
	int8_t glowaPom[3];
	int8_t uGlowy[3][3]={{1,0,0},{0,1,0},{0,0,1}};
    18d8:	89 e0       	ldi	r24, 0x09	; 9
    18da:	e6 ea       	ldi	r30, 0xA6	; 166
    18dc:	f0 e0       	ldi	r31, 0x00	; 0
    18de:	de 01       	movw	r26, r28
    18e0:	ac 5f       	subi	r26, 0xFC	; 252
    18e2:	b9 4f       	sbci	r27, 0xF9	; 249
    18e4:	01 90       	ld	r0, Z+
    18e6:	0d 92       	st	X+, r0
    18e8:	8a 95       	dec	r24
    18ea:	e1 f7       	brne	.-8      	; 0x18e4 <Snake+0x4a>

	//inicjuj polozenie glowy
	for(uint8_t i=0;i<3;i++)
	{
		waz[0][i]=4;
    18ec:	84 e0       	ldi	r24, 0x04	; 4
    18ee:	89 83       	std	Y+1, r24	; 0x01
    18f0:	8a 83       	std	Y+2, r24	; 0x02
    18f2:	8b 83       	std	Y+3, r24	; 0x03
		
	}

	//inicjuj geometrie

	int8_t Ry[3][3]={{0,0,1},{0,1,0},{-1,0,0}};
    18f4:	89 e0       	ldi	r24, 0x09	; 9
    18f6:	ef ea       	ldi	r30, 0xAF	; 175
    18f8:	f0 e0       	ldi	r31, 0x00	; 0
    18fa:	de 01       	movw	r26, r28
    18fc:	a3 5f       	subi	r26, 0xF3	; 243
    18fe:	b9 4f       	sbci	r27, 0xF9	; 249
    1900:	01 90       	ld	r0, Z+
    1902:	0d 92       	st	X+, r0
    1904:	8a 95       	dec	r24
    1906:	e1 f7       	brne	.-8      	; 0x1900 <Snake+0x66>
	int8_t Rz[3][3]={{0,-1,0},{1,0,0},{0,0,1}};
    1908:	89 e0       	ldi	r24, 0x09	; 9
    190a:	e8 eb       	ldi	r30, 0xB8	; 184
    190c:	f0 e0       	ldi	r31, 0x00	; 0
    190e:	de 01       	movw	r26, r28
    1910:	aa 5e       	subi	r26, 0xEA	; 234
    1912:	b9 4f       	sbci	r27, 0xF9	; 249
    1914:	01 90       	ld	r0, Z+
    1916:	0d 92       	st	X+, r0
    1918:	8a 95       	dec	r24
    191a:	e1 f7       	brne	.-8      	; 0x1914 <Snake+0x7a>
	enum Polozenie polozenie=wWezu;
    191c:	41 2c       	mov	r4, r1
}

void Snake()
{
	srand(TCNT0);
	unsigned int dlugoscWeza = 1;
    191e:	cc 24       	eor	r12, r12
    1920:	c3 94       	inc	r12
    1922:	d1 2c       	mov	r13, r1
    1924:	9e 01       	movw	r18, r28
    1926:	2d 5f       	subi	r18, 0xFD	; 253
    1928:	3f 4f       	sbci	r19, 0xFF	; 255
    192a:	c1 5e       	subi	r28, 0xE1	; 225
    192c:	d9 4f       	sbci	r29, 0xF9	; 249
    192e:	39 83       	std	Y+1, r19	; 0x01
    1930:	28 83       	st	Y, r18
    1932:	cf 51       	subi	r28, 0x1F	; 31
    1934:	d6 40       	sbci	r29, 0x06	; 6
	
		//Genruj jedzenie
	
	while(polozenie==wWezu)
	{
		jedzenie[0]=rand()%7;
    1936:	0f 2e       	mov	r0, r31
    1938:	f7 e0       	ldi	r31, 0x07	; 7
    193a:	ef 2e       	mov	r14, r31
    193c:	f1 2c       	mov	r15, r1
    193e:	f0 2d       	mov	r31, r0
    1940:	c1 5e       	subi	r28, 0xE1	; 225
    1942:	d9 4f       	sbci	r29, 0xF9	; 249
    1944:	68 80       	ld	r6, Y
    1946:	cf 51       	subi	r28, 0x1F	; 31
    1948:	d6 40       	sbci	r29, 0x06	; 6
    194a:	c0 5e       	subi	r28, 0xE0	; 224
    194c:	d9 4f       	sbci	r29, 0xF9	; 249
    194e:	58 80       	ld	r5, Y
    1950:	c0 52       	subi	r28, 0x20	; 32
    1952:	d6 40       	sbci	r29, 0x06	; 6
		warstwa2[n]=(uint8_t)ASCIItrans[znak][6];
		warstwa1[n]=(uint8_t)ASCIItrans[znak][7];
	}
}

void Snake()
    1954:	1e 01       	movw	r2, r28
    1956:	34 e0       	ldi	r19, 0x04	; 4
    1958:	23 0e       	add	r2, r19
    195a:	31 1c       	adc	r3, r1
    195c:	81 e0       	ldi	r24, 0x01	; 1
    195e:	90 e0       	ldi	r25, 0x00	; 0
    1960:	8c 0f       	add	r24, r28
    1962:	9d 1f       	adc	r25, r29
    1964:	02 96       	adiw	r24, 0x02	; 2
    1966:	cf 5d       	subi	r28, 0xDF	; 223
    1968:	d9 4f       	sbci	r29, 0xF9	; 249
    196a:	99 83       	std	Y+1, r25	; 0x01
    196c:	88 83       	st	Y, r24
    196e:	c1 52       	subi	r28, 0x21	; 33
    1970:	d6 40       	sbci	r29, 0x06	; 6
	int8_t Ry[3][3]={{0,0,1},{0,1,0},{-1,0,0}};
	int8_t Rz[3][3]={{0,-1,0},{1,0,0},{0,0,1}};
	enum Polozenie polozenie=wWezu;
				
	//petla gry
	while(stan==GRA)
    1972:	49 c1       	rjmp	.+658    	; 0x1c06 <Snake+0x36c>
	{
		//laduj weza na kostke
		Czysc();
    1974:	0e 94 e2 05 	call	0xbc4	; 0xbc4 <Czysc>
		for(unsigned int i=0;i<dlugoscWeza;i++)
    1978:	c1 14       	cp	r12, r1
    197a:	d1 04       	cpc	r13, r1
    197c:	d9 f0       	breq	.+54     	; 0x19b4 <Snake+0x11a>
    197e:	8e 01       	movw	r16, r28
    1980:	0d 5f       	subi	r16, 0xFD	; 253
    1982:	1f 4f       	sbci	r17, 0xFF	; 255
		warstwa2[n]=(uint8_t)ASCIItrans[znak][6];
		warstwa1[n]=(uint8_t)ASCIItrans[znak][7];
	}
}

void Snake()
    1984:	46 01       	movw	r8, r12
    1986:	88 0c       	add	r8, r8
    1988:	99 1c       	adc	r9, r9
    198a:	8c 0c       	add	r8, r12
    198c:	9d 1c       	adc	r9, r13
    198e:	80 0e       	add	r8, r16
    1990:	91 1e       	adc	r9, r17
    1992:	d8 01       	movw	r26, r16
    1994:	11 97       	sbiw	r26, 0x01	; 1
    1996:	c8 01       	movw	r24, r16
    1998:	02 97       	sbiw	r24, 0x02	; 2
	{
		//laduj weza na kostke
		Czysc();
		for(unsigned int i=0;i<dlugoscWeza;i++)
		{
			ZmienDiode(waz[i][0],waz[i][1],waz[i][2],1);
    199a:	21 e0       	ldi	r18, 0x01	; 1
    199c:	f8 01       	movw	r30, r16
    199e:	40 81       	ld	r20, Z
    19a0:	6c 91       	ld	r22, X
    19a2:	dc 01       	movw	r26, r24
    19a4:	8c 91       	ld	r24, X
    19a6:	0e 94 75 02 	call	0x4ea	; 0x4ea <ZmienDiode>
    19aa:	0d 5f       	subi	r16, 0xFD	; 253
    19ac:	1f 4f       	sbci	r17, 0xFF	; 255
	//petla gry
	while(stan==GRA)
	{
		//laduj weza na kostke
		Czysc();
		for(unsigned int i=0;i<dlugoscWeza;i++)
    19ae:	08 15       	cp	r16, r8
    19b0:	19 05       	cpc	r17, r9
    19b2:	79 f7       	brne	.-34     	; 0x1992 <Snake+0xf8>
			ZmienDiode(waz[i][0],waz[i][1],waz[i][2],1);
		}
	
		//Genruj jedzenie
	
	while(polozenie==wWezu)
    19b4:	41 10       	cpse	r4, r1
    19b6:	47 c0       	rjmp	.+142    	; 0x1a46 <Snake+0x1ac>
		warstwa2[n]=(uint8_t)ASCIItrans[znak][6];
		warstwa1[n]=(uint8_t)ASCIItrans[znak][7];
	}
}

void Snake()
    19b8:	86 01       	movw	r16, r12
    19ba:	00 0f       	add	r16, r16
    19bc:	11 1f       	adc	r17, r17
    19be:	0c 0d       	add	r16, r12
    19c0:	1d 1d       	adc	r17, r13
    19c2:	e3 e0       	ldi	r30, 0x03	; 3
    19c4:	f0 e0       	ldi	r31, 0x00	; 0
    19c6:	ec 0f       	add	r30, r28
    19c8:	fd 1f       	adc	r31, r29
    19ca:	0e 0f       	add	r16, r30
    19cc:	1f 1f       	adc	r17, r31
	
		//Genruj jedzenie
	
	while(polozenie==wWezu)
	{
		jedzenie[0]=rand()%7;
    19ce:	0e 94 24 10 	call	0x2048	; 0x2048 <rand>
    19d2:	b7 01       	movw	r22, r14
    19d4:	0e 94 ab 0f 	call	0x1f56	; 0x1f56 <__divmodhi4>
    19d8:	b8 2e       	mov	r11, r24
		jedzenie[1]=rand()%7;
    19da:	0e 94 24 10 	call	0x2048	; 0x2048 <rand>
    19de:	b7 01       	movw	r22, r14
    19e0:	0e 94 ab 0f 	call	0x1f56	; 0x1f56 <__divmodhi4>
    19e4:	78 2e       	mov	r7, r24
		jedzenie[2]=rand()%7;
    19e6:	0e 94 24 10 	call	0x2048	; 0x2048 <rand>
    19ea:	b7 01       	movw	r22, r14
    19ec:	0e 94 ab 0f 	call	0x1f56	; 0x1f56 <__divmodhi4>
    19f0:	a8 2e       	mov	r10, r24
		
		for(unsigned int k=0;k<dlugoscWeza;k++)
    19f2:	c1 14       	cp	r12, r1
    19f4:	d1 04       	cpc	r13, r1
    19f6:	59 f3       	breq	.-42     	; 0x19ce <Snake+0x134>
    19f8:	26 2d       	mov	r18, r6
    19fa:	35 2d       	mov	r19, r5
		{
			
			if((jedzenie[0]==waz[k][0])&&(jedzenie[1]==waz[k][1])&&(jedzenie[2]==waz[k][2]))
    19fc:	6b 2d       	mov	r22, r11
    19fe:	77 27       	eor	r23, r23
    1a00:	67 fd       	sbrc	r22, 7
    1a02:	70 95       	com	r23
    1a04:	87 2d       	mov	r24, r7
    1a06:	99 27       	eor	r25, r25
    1a08:	87 fd       	sbrc	r24, 7
    1a0a:	90 95       	com	r25
    1a0c:	8a 2c       	mov	r8, r10
    1a0e:	99 24       	eor	r9, r9
    1a10:	87 fc       	sbrc	r8, 7
    1a12:	90 94       	com	r9
		warstwa2[n]=(uint8_t)ASCIItrans[znak][6];
		warstwa1[n]=(uint8_t)ASCIItrans[znak][7];
	}
}

void Snake()
    1a14:	f9 01       	movw	r30, r18
    1a16:	d9 01       	movw	r26, r18
    1a18:	12 97       	sbiw	r26, 0x02	; 2
		jedzenie[2]=rand()%7;
		
		for(unsigned int k=0;k<dlugoscWeza;k++)
		{
			
			if((jedzenie[0]==waz[k][0])&&(jedzenie[1]==waz[k][1])&&(jedzenie[2]==waz[k][2]))
    1a1a:	4c 91       	ld	r20, X
    1a1c:	50 e0       	ldi	r21, 0x00	; 0
    1a1e:	64 17       	cp	r22, r20
    1a20:	75 07       	cpc	r23, r21
    1a22:	61 f4       	brne	.+24     	; 0x1a3c <Snake+0x1a2>
		warstwa2[n]=(uint8_t)ASCIItrans[znak][6];
		warstwa1[n]=(uint8_t)ASCIItrans[znak][7];
	}
}

void Snake()
    1a24:	d9 01       	movw	r26, r18
    1a26:	11 97       	sbiw	r26, 0x01	; 1
		jedzenie[2]=rand()%7;
		
		for(unsigned int k=0;k<dlugoscWeza;k++)
		{
			
			if((jedzenie[0]==waz[k][0])&&(jedzenie[1]==waz[k][1])&&(jedzenie[2]==waz[k][2]))
    1a28:	4c 91       	ld	r20, X
    1a2a:	50 e0       	ldi	r21, 0x00	; 0
    1a2c:	84 17       	cp	r24, r20
    1a2e:	95 07       	cpc	r25, r21
    1a30:	29 f4       	brne	.+10     	; 0x1a3c <Snake+0x1a2>
    1a32:	40 81       	ld	r20, Z
    1a34:	50 e0       	ldi	r21, 0x00	; 0
    1a36:	84 16       	cp	r8, r20
    1a38:	95 06       	cpc	r9, r21
    1a3a:	49 f2       	breq	.-110    	; 0x19ce <Snake+0x134>
    1a3c:	2d 5f       	subi	r18, 0xFD	; 253
    1a3e:	3f 4f       	sbci	r19, 0xFF	; 255
	{
		jedzenie[0]=rand()%7;
		jedzenie[1]=rand()%7;
		jedzenie[2]=rand()%7;
		
		for(unsigned int k=0;k<dlugoscWeza;k++)
    1a40:	20 17       	cp	r18, r16
    1a42:	31 07       	cpc	r19, r17
    1a44:	39 f7       	brne	.-50     	; 0x1a14 <Snake+0x17a>
			
		}
	
	}
		
	ZmienDiode(jedzenie[0],jedzenie[1],jedzenie[2],1);
    1a46:	21 e0       	ldi	r18, 0x01	; 1
    1a48:	4a 2d       	mov	r20, r10
    1a4a:	67 2d       	mov	r22, r7
    1a4c:	8b 2d       	mov	r24, r11
    1a4e:	0e 94 75 02 	call	0x4ea	; 0x4ea <ZmienDiode>
		
		//wyswietle weza i jedznie
		WyswietlKlatke(1000);
    1a52:	60 e0       	ldi	r22, 0x00	; 0
    1a54:	70 e0       	ldi	r23, 0x00	; 0
    1a56:	8a e7       	ldi	r24, 0x7A	; 122
    1a58:	94 e4       	ldi	r25, 0x44	; 68
    1a5a:	0e 94 d8 00 	call	0x1b0	; 0x1b0 <WyswietlKlatke>
		
		//wykonaj skret
		switch(skret)
    1a5e:	80 91 a5 00 	lds	r24, 0x00A5
    1a62:	83 30       	cpi	r24, 0x03	; 3
    1a64:	b9 f0       	breq	.+46     	; 0x1a94 <Snake+0x1fa>
    1a66:	20 f4       	brcc	.+8      	; 0x1a70 <Snake+0x1d6>
    1a68:	82 30       	cpi	r24, 0x02	; 2
    1a6a:	09 f0       	breq	.+2      	; 0x1a6e <Snake+0x1d4>
    1a6c:	d2 c0       	rjmp	.+420    	; 0x1c12 <Snake+0x378>
    1a6e:	06 c0       	rjmp	.+12     	; 0x1a7c <Snake+0x1e2>
    1a70:	84 30       	cpi	r24, 0x04	; 4
    1a72:	e1 f0       	breq	.+56     	; 0x1aac <Snake+0x212>
    1a74:	85 30       	cpi	r24, 0x05	; 5
    1a76:	09 f0       	breq	.+2      	; 0x1a7a <Snake+0x1e0>
    1a78:	cc c0       	rjmp	.+408    	; 0x1c12 <Snake+0x378>
    1a7a:	24 c0       	rjmp	.+72     	; 0x1ac4 <Snake+0x22a>
		{
			
			case yp90:
			MacierzxMacierz(Ry,uGlowy);
    1a7c:	be 01       	movw	r22, r28
    1a7e:	6c 5f       	subi	r22, 0xFC	; 252
    1a80:	79 4f       	sbci	r23, 0xF9	; 249
    1a82:	ce 01       	movw	r24, r28
    1a84:	83 5f       	subi	r24, 0xF3	; 243
    1a86:	99 4f       	sbci	r25, 0xF9	; 249
    1a88:	0e 94 1d 0b 	call	0x163a	; 0x163a <MacierzxMacierz>
			skret=nic;
    1a8c:	86 e0       	ldi	r24, 0x06	; 6
    1a8e:	80 93 a5 00 	sts	0x00A5, r24
			break;
    1a92:	bf c0       	rjmp	.+382    	; 0x1c12 <Snake+0x378>
			
			case ym90:
			MinMacierzxMacierz(Ry,uGlowy);
    1a94:	be 01       	movw	r22, r28
    1a96:	6c 5f       	subi	r22, 0xFC	; 252
    1a98:	79 4f       	sbci	r23, 0xF9	; 249
    1a9a:	ce 01       	movw	r24, r28
    1a9c:	83 5f       	subi	r24, 0xF3	; 243
    1a9e:	99 4f       	sbci	r25, 0xF9	; 249
    1aa0:	0e 94 ac 0b 	call	0x1758	; 0x1758 <MinMacierzxMacierz>
			skret=nic;
    1aa4:	86 e0       	ldi	r24, 0x06	; 6
    1aa6:	80 93 a5 00 	sts	0x00A5, r24
			break;
    1aaa:	b3 c0       	rjmp	.+358    	; 0x1c12 <Snake+0x378>
			
			case zp90:
			MacierzxMacierz(Rz,uGlowy);
    1aac:	be 01       	movw	r22, r28
    1aae:	6c 5f       	subi	r22, 0xFC	; 252
    1ab0:	79 4f       	sbci	r23, 0xF9	; 249
    1ab2:	ce 01       	movw	r24, r28
    1ab4:	8a 5e       	subi	r24, 0xEA	; 234
    1ab6:	99 4f       	sbci	r25, 0xF9	; 249
    1ab8:	0e 94 1d 0b 	call	0x163a	; 0x163a <MacierzxMacierz>
			skret=nic;
    1abc:	86 e0       	ldi	r24, 0x06	; 6
    1abe:	80 93 a5 00 	sts	0x00A5, r24
			break;
    1ac2:	a7 c0       	rjmp	.+334    	; 0x1c12 <Snake+0x378>
			
			case zm90:
			MinMacierzxMacierz(Rz,uGlowy);
    1ac4:	be 01       	movw	r22, r28
    1ac6:	6c 5f       	subi	r22, 0xFC	; 252
    1ac8:	79 4f       	sbci	r23, 0xF9	; 249
    1aca:	ce 01       	movw	r24, r28
    1acc:	8a 5e       	subi	r24, 0xEA	; 234
    1ace:	99 4f       	sbci	r25, 0xF9	; 249
    1ad0:	0e 94 ac 0b 	call	0x1758	; 0x1758 <MinMacierzxMacierz>
			skret=nic;
    1ad4:	86 e0       	ldi	r24, 0x06	; 6
    1ad6:	80 93 a5 00 	sts	0x00A5, r24
			break;
    1ada:	9b c0       	rjmp	.+310    	; 0x1c12 <Snake+0x378>
		}
		
		//przesun glowe TODO warunki brzegowe
		for(uint8_t i=0;i<3;i++)
		{
		glowaPom[i]=waz[0][i]+uGlowy[i][0];
    1adc:	dc 01       	movw	r26, r24
    1ade:	4d 91       	ld	r20, X+
    1ae0:	cd 01       	movw	r24, r26
    1ae2:	db 01       	movw	r26, r22
    1ae4:	2c 91       	ld	r18, X
    1ae6:	42 0f       	add	r20, r18
    1ae8:	40 83       	st	Z, r20
		if(glowaPom[i]>7) glowaPom[i]=0;
    1aea:	48 30       	cpi	r20, 0x08	; 8
    1aec:	14 f0       	brlt	.+4      	; 0x1af2 <Snake+0x258>
    1aee:	10 82       	st	Z, r1
    1af0:	04 c0       	rjmp	.+8      	; 0x1afa <Snake+0x260>
		if(glowaPom[i]<0) glowaPom[i]=7;
    1af2:	40 81       	ld	r20, Z
    1af4:	44 23       	and	r20, r20
    1af6:	0c f4       	brge	.+2      	; 0x1afa <Snake+0x260>
    1af8:	50 83       	st	Z, r21
    1afa:	6d 5f       	subi	r22, 0xFD	; 253
    1afc:	7f 4f       	sbci	r23, 0xFF	; 255
    1afe:	31 96       	adiw	r30, 0x01	; 1
			default:
			break;
		}
		
		//przesun glowe TODO warunki brzegowe
		for(uint8_t i=0;i<3;i++)
    1b00:	82 15       	cp	r24, r2
    1b02:	93 05       	cpc	r25, r3
    1b04:	59 f7       	brne	.-42     	; 0x1adc <Snake+0x242>
	
		
		}
		
		//sprawdz czy zjadl
		if(jedzenie[0]==glowaPom[0]&&jedzenie[1]==glowaPom[1]&&jedzenie[2]==glowaPom[2])
    1b06:	cf 5f       	subi	r28, 0xFF	; 255
    1b08:	d9 4f       	sbci	r29, 0xF9	; 249
    1b0a:	48 81       	ld	r20, Y
    1b0c:	c1 50       	subi	r28, 0x01	; 1
    1b0e:	d6 40       	sbci	r29, 0x06	; 6
    1b10:	4b 11       	cpse	r20, r11
    1b12:	13 c0       	rjmp	.+38     	; 0x1b3a <Snake+0x2a0>
    1b14:	ce 5f       	subi	r28, 0xFE	; 254
    1b16:	d9 4f       	sbci	r29, 0xF9	; 249
    1b18:	88 81       	ld	r24, Y
    1b1a:	c2 50       	subi	r28, 0x02	; 2
    1b1c:	d6 40       	sbci	r29, 0x06	; 6
    1b1e:	87 11       	cpse	r24, r7
    1b20:	0f c0       	rjmp	.+30     	; 0x1b40 <Snake+0x2a6>
    1b22:	cd 5f       	subi	r28, 0xFD	; 253
    1b24:	d9 4f       	sbci	r29, 0xF9	; 249
    1b26:	88 81       	ld	r24, Y
    1b28:	c3 50       	subi	r28, 0x03	; 3
    1b2a:	d6 40       	sbci	r29, 0x06	; 6
    1b2c:	a8 12       	cpse	r10, r24
    1b2e:	0b c0       	rjmp	.+22     	; 0x1b46 <Snake+0x2ac>
		{
			polozenie=wWezu;
			dlugoscWeza++;
    1b30:	bf ef       	ldi	r27, 0xFF	; 255
    1b32:	cb 1a       	sub	r12, r27
    1b34:	db 0a       	sbc	r13, r27
		}
		
		//sprawdz czy zjadl
		if(jedzenie[0]==glowaPom[0]&&jedzenie[1]==glowaPom[1]&&jedzenie[2]==glowaPom[2])
		{
			polozenie=wWezu;
    1b36:	41 2c       	mov	r4, r1
			dlugoscWeza++;
    1b38:	08 c0       	rjmp	.+16     	; 0x1b4a <Snake+0x2b0>
			
		}
		else
		{
			polozenie=pozaWezem;
    1b3a:	44 24       	eor	r4, r4
    1b3c:	43 94       	inc	r4
    1b3e:	05 c0       	rjmp	.+10     	; 0x1b4a <Snake+0x2b0>
    1b40:	44 24       	eor	r4, r4
    1b42:	43 94       	inc	r4
    1b44:	02 c0       	rjmp	.+4      	; 0x1b4a <Snake+0x2b0>
    1b46:	44 24       	eor	r4, r4
    1b48:	43 94       	inc	r4
		}
		
		//sprawd czy nie zjad siebie
		for(int i=1;i<dlugoscWeza;i++)
    1b4a:	e2 e0       	ldi	r30, 0x02	; 2
    1b4c:	ce 16       	cp	r12, r30
    1b4e:	d1 04       	cpc	r13, r1
    1b50:	08 f4       	brcc	.+2      	; 0x1b54 <Snake+0x2ba>
    1b52:	69 c0       	rjmp	.+210    	; 0x1c26 <Snake+0x38c>
		{
			if(waz[i][0]==glowaPom[0]&&waz[i]==glowaPom[1]&&waz[i]==glowaPom[2])
    1b54:	ce 5f       	subi	r28, 0xFE	; 254
    1b56:	d9 4f       	sbci	r29, 0xF9	; 249
    1b58:	a8 81       	ld	r26, Y
    1b5a:	c2 50       	subi	r28, 0x02	; 2
    1b5c:	d6 40       	sbci	r29, 0x06	; 6
    1b5e:	bb 27       	eor	r27, r27
    1b60:	a7 fd       	sbrc	r26, 7
    1b62:	b0 95       	com	r27
    1b64:	cd 5f       	subi	r28, 0xFD	; 253
    1b66:	d9 4f       	sbci	r29, 0xF9	; 249
    1b68:	08 81       	ld	r16, Y
    1b6a:	c3 50       	subi	r28, 0x03	; 3
    1b6c:	d6 40       	sbci	r29, 0x06	; 6
    1b6e:	11 27       	eor	r17, r17
    1b70:	07 fd       	sbrc	r16, 7
    1b72:	10 95       	com	r17
    1b74:	f1 01       	movw	r30, r2
		warstwa2[n]=(uint8_t)ASCIItrans[znak][6];
		warstwa1[n]=(uint8_t)ASCIItrans[znak][7];
	}
}

void Snake()
    1b76:	b6 01       	movw	r22, r12
		{
			polozenie=pozaWezem;
		}
		
		//sprawd czy nie zjad siebie
		for(int i=1;i<dlugoscWeza;i++)
    1b78:	81 e0       	ldi	r24, 0x01	; 1
    1b7a:	90 e0       	ldi	r25, 0x00	; 0
		{
			if(waz[i][0]==glowaPom[0]&&waz[i]==glowaPom[1]&&waz[i]==glowaPom[2])
    1b7c:	55 27       	eor	r21, r21
    1b7e:	47 fd       	sbrc	r20, 7
    1b80:	50 95       	com	r21
    1b82:	20 81       	ld	r18, Z
    1b84:	30 e0       	ldi	r19, 0x00	; 0
    1b86:	24 17       	cp	r18, r20
    1b88:	35 07       	cpc	r19, r21
    1b8a:	a1 f4       	brne	.+40     	; 0x1bb4 <Snake+0x31a>
    1b8c:	9c 01       	movw	r18, r24
    1b8e:	22 0f       	add	r18, r18
    1b90:	33 1f       	adc	r19, r19
    1b92:	28 0f       	add	r18, r24
    1b94:	39 1f       	adc	r19, r25
    1b96:	88 24       	eor	r8, r8
    1b98:	83 94       	inc	r8
    1b9a:	91 2c       	mov	r9, r1
    1b9c:	8c 0e       	add	r8, r28
    1b9e:	9d 1e       	adc	r9, r29
    1ba0:	28 0d       	add	r18, r8
    1ba2:	39 1d       	adc	r19, r9
    1ba4:	a2 17       	cp	r26, r18
    1ba6:	b3 07       	cpc	r27, r19
    1ba8:	29 f4       	brne	.+10     	; 0x1bb4 <Snake+0x31a>
    1baa:	a0 17       	cp	r26, r16
    1bac:	b1 07       	cpc	r27, r17
    1bae:	11 f4       	brne	.+4      	; 0x1bb4 <Snake+0x31a>
			{
				stan=OCZEKIWANIE;
    1bb0:	10 92 bf 03 	sts	0x03BF, r1
		{
			polozenie=pozaWezem;
		}
		
		//sprawd czy nie zjad siebie
		for(int i=1;i<dlugoscWeza;i++)
    1bb4:	01 96       	adiw	r24, 0x01	; 1
    1bb6:	33 96       	adiw	r30, 0x03	; 3
    1bb8:	86 17       	cp	r24, r22
    1bba:	97 07       	cpc	r25, r23
    1bbc:	11 f7       	brne	.-60     	; 0x1b82 <Snake+0x2e8>
    1bbe:	fe 01       	movw	r30, r28
    1bc0:	36 96       	adiw	r30, 0x06	; 6
		warstwa2[n]=(uint8_t)ASCIItrans[znak][6];
		warstwa1[n]=(uint8_t)ASCIItrans[znak][7];
	}
}

void Snake()
    1bc2:	c6 01       	movw	r24, r12
    1bc4:	88 0f       	add	r24, r24
    1bc6:	99 1f       	adc	r25, r25
    1bc8:	8c 0d       	add	r24, r12
    1bca:	9d 1d       	adc	r25, r13
    1bcc:	cf 5d       	subi	r28, 0xDF	; 223
    1bce:	d9 4f       	sbci	r29, 0xF9	; 249
    1bd0:	88 80       	ld	r8, Y
    1bd2:	99 80       	ldd	r9, Y+1	; 0x01
    1bd4:	c1 52       	subi	r28, 0x21	; 33
    1bd6:	d6 40       	sbci	r29, 0x06	; 6
    1bd8:	88 0d       	add	r24, r8
    1bda:	99 1d       	adc	r25, r9
    1bdc:	df 01       	movw	r26, r30
    1bde:	15 97       	sbiw	r26, 0x05	; 5
		//przesun cialo -zacznij od drugiego elementu bo gowa oddzielnie
		for(int i=1;i<dlugoscWeza;i++)
		{
			for(int j=0;j<3;j++)
			{
				waz[i][j]=waz[i-1][j];
    1be0:	2c 91       	ld	r18, X
		warstwa2[n]=(uint8_t)ASCIItrans[znak][6];
		warstwa1[n]=(uint8_t)ASCIItrans[znak][7];
	}
}

void Snake()
    1be2:	df 01       	movw	r26, r30
    1be4:	12 97       	sbiw	r26, 0x02	; 2
		//przesun cialo -zacznij od drugiego elementu bo gowa oddzielnie
		for(int i=1;i<dlugoscWeza;i++)
		{
			for(int j=0;j<3;j++)
			{
				waz[i][j]=waz[i-1][j];
    1be6:	2c 93       	st	X, r18
		warstwa2[n]=(uint8_t)ASCIItrans[znak][6];
		warstwa1[n]=(uint8_t)ASCIItrans[znak][7];
	}
}

void Snake()
    1be8:	df 01       	movw	r26, r30
    1bea:	14 97       	sbiw	r26, 0x04	; 4
		//przesun cialo -zacznij od drugiego elementu bo gowa oddzielnie
		for(int i=1;i<dlugoscWeza;i++)
		{
			for(int j=0;j<3;j++)
			{
				waz[i][j]=waz[i-1][j];
    1bec:	2c 91       	ld	r18, X
		warstwa2[n]=(uint8_t)ASCIItrans[znak][6];
		warstwa1[n]=(uint8_t)ASCIItrans[znak][7];
	}
}

void Snake()
    1bee:	df 01       	movw	r26, r30
    1bf0:	11 97       	sbiw	r26, 0x01	; 1
		//przesun cialo -zacznij od drugiego elementu bo gowa oddzielnie
		for(int i=1;i<dlugoscWeza;i++)
		{
			for(int j=0;j<3;j++)
			{
				waz[i][j]=waz[i-1][j];
    1bf2:	2c 93       	st	X, r18
		warstwa2[n]=(uint8_t)ASCIItrans[znak][6];
		warstwa1[n]=(uint8_t)ASCIItrans[znak][7];
	}
}

void Snake()
    1bf4:	df 01       	movw	r26, r30
    1bf6:	13 97       	sbiw	r26, 0x03	; 3
		//przesun cialo -zacznij od drugiego elementu bo gowa oddzielnie
		for(int i=1;i<dlugoscWeza;i++)
		{
			for(int j=0;j<3;j++)
			{
				waz[i][j]=waz[i-1][j];
    1bf8:	2c 91       	ld	r18, X
    1bfa:	20 83       	st	Z, r18
    1bfc:	33 96       	adiw	r30, 0x03	; 3
			}
		}
		
		
		//przesun cialo -zacznij od drugiego elementu bo gowa oddzielnie
		for(int i=1;i<dlugoscWeza;i++)
    1bfe:	e8 17       	cp	r30, r24
    1c00:	f9 07       	cpc	r31, r25
    1c02:	61 f7       	brne	.-40     	; 0x1bdc <Snake+0x342>
    1c04:	10 c0       	rjmp	.+32     	; 0x1c26 <Snake+0x38c>
	int8_t Ry[3][3]={{0,0,1},{0,1,0},{-1,0,0}};
	int8_t Rz[3][3]={{0,-1,0},{1,0,0},{0,0,1}};
	enum Polozenie polozenie=wWezu;
				
	//petla gry
	while(stan==GRA)
    1c06:	80 91 bf 03 	lds	r24, 0x03BF
    1c0a:	86 30       	cpi	r24, 0x06	; 6
    1c0c:	09 f4       	brne	.+2      	; 0x1c10 <Snake+0x376>
    1c0e:	b2 ce       	rjmp	.-668    	; 0x1974 <Snake+0xda>
    1c10:	1d c0       	rjmp	.+58     	; 0x1c4c <Snake+0x3b2>
    1c12:	ce 01       	movw	r24, r28
    1c14:	01 96       	adiw	r24, 0x01	; 1
    1c16:	be 01       	movw	r22, r28
    1c18:	6c 5f       	subi	r22, 0xFC	; 252
    1c1a:	79 4f       	sbci	r23, 0xF9	; 249
    1c1c:	fe 01       	movw	r30, r28
    1c1e:	ef 5f       	subi	r30, 0xFF	; 255
    1c20:	f9 4f       	sbci	r31, 0xF9	; 249
		//przesun glowe TODO warunki brzegowe
		for(uint8_t i=0;i<3;i++)
		{
		glowaPom[i]=waz[0][i]+uGlowy[i][0];
		if(glowaPom[i]>7) glowaPom[i]=0;
		if(glowaPom[i]<0) glowaPom[i]=7;
    1c22:	57 e0       	ldi	r21, 0x07	; 7
    1c24:	5b cf       	rjmp	.-330    	; 0x1adc <Snake+0x242>
			}
		}
		
		for(int j=0;j<3;j++)
		{
			waz[0][j]=glowaPom[j];
    1c26:	cf 5f       	subi	r28, 0xFF	; 255
    1c28:	d9 4f       	sbci	r29, 0xF9	; 249
    1c2a:	88 81       	ld	r24, Y
    1c2c:	c1 50       	subi	r28, 0x01	; 1
    1c2e:	d6 40       	sbci	r29, 0x06	; 6
    1c30:	89 83       	std	Y+1, r24	; 0x01
    1c32:	ce 5f       	subi	r28, 0xFE	; 254
    1c34:	d9 4f       	sbci	r29, 0xF9	; 249
    1c36:	88 81       	ld	r24, Y
    1c38:	c2 50       	subi	r28, 0x02	; 2
    1c3a:	d6 40       	sbci	r29, 0x06	; 6
    1c3c:	8a 83       	std	Y+2, r24	; 0x02
    1c3e:	cd 5f       	subi	r28, 0xFD	; 253
    1c40:	d9 4f       	sbci	r29, 0xF9	; 249
    1c42:	88 81       	ld	r24, Y
    1c44:	c3 50       	subi	r28, 0x03	; 3
    1c46:	d6 40       	sbci	r29, 0x06	; 6
    1c48:	8b 83       	std	Y+3, r24	; 0x03
    1c4a:	dd cf       	rjmp	.-70     	; 0x1c06 <Snake+0x36c>
		}
		
			
	}
	
}
    1c4c:	ce 5d       	subi	r28, 0xDE	; 222
    1c4e:	d9 4f       	sbci	r29, 0xF9	; 249
    1c50:	0f b6       	in	r0, 0x3f	; 63
    1c52:	f8 94       	cli
    1c54:	de bf       	out	0x3e, r29	; 62
    1c56:	0f be       	out	0x3f, r0	; 63
    1c58:	cd bf       	out	0x3d, r28	; 61
    1c5a:	df 91       	pop	r29
    1c5c:	cf 91       	pop	r28
    1c5e:	1f 91       	pop	r17
    1c60:	0f 91       	pop	r16
    1c62:	ff 90       	pop	r15
    1c64:	ef 90       	pop	r14
    1c66:	df 90       	pop	r13
    1c68:	cf 90       	pop	r12
    1c6a:	bf 90       	pop	r11
    1c6c:	af 90       	pop	r10
    1c6e:	9f 90       	pop	r9
    1c70:	8f 90       	pop	r8
    1c72:	7f 90       	pop	r7
    1c74:	6f 90       	pop	r6
    1c76:	5f 90       	pop	r5
    1c78:	4f 90       	pop	r4
    1c7a:	3f 90       	pop	r3
    1c7c:	2f 90       	pop	r2
    1c7e:	08 95       	ret

00001c80 <main>:


int main( void )
{
	
	sei();
    1c80:	78 94       	sei
	InicjujUSART();
    1c82:	0e 94 f8 00 	call	0x1f0	; 0x1f0 <InicjujUSART>
	InicjujSPI();
    1c86:	0e 94 4d 00 	call	0x9a	; 0x9a <InicjujSPI>
	InicjujIO();
    1c8a:	0e 94 6f 00 	call	0xde	; 0xde <InicjujIO>
	InicjujTimer();
    1c8e:	0e 94 67 01 	call	0x2ce	; 0x2ce <InicjujTimer>
	Czysc();
    1c92:	0e 94 e2 05 	call	0xbc4	; 0xbc4 <Czysc>

uint8_t liczbaZnakow=3;

buforTekst[0]=43;
    1c96:	8b e2       	ldi	r24, 0x2B	; 43
    1c98:	80 93 c0 03 	sts	0x03C0, r24
buforTekst[1]=46;
    1c9c:	8e e2       	ldi	r24, 0x2E	; 46
    1c9e:	80 93 c1 03 	sts	0x03C1, r24
buforTekst[2]=50;
    1ca2:	82 e3       	ldi	r24, 0x32	; 50
    1ca4:	80 93 c2 03 	sts	0x03C2, r24

	while(1)
	{
		
	switch(stan)
    1ca8:	80 91 bf 03 	lds	r24, 0x03BF
    1cac:	83 30       	cpi	r24, 0x03	; 3
    1cae:	c1 f0       	breq	.+48     	; 0x1ce0 <main+0x60>
    1cb0:	20 f4       	brcc	.+8      	; 0x1cba <main+0x3a>
    1cb2:	81 30       	cpi	r24, 0x01	; 1
    1cb4:	59 f0       	breq	.+22     	; 0x1ccc <main+0x4c>
    1cb6:	78 f4       	brcc	.+30     	; 0x1cd6 <main+0x56>
    1cb8:	06 c0       	rjmp	.+12     	; 0x1cc6 <main+0x46>
    1cba:	85 30       	cpi	r24, 0x05	; 5
    1cbc:	d9 f0       	breq	.+54     	; 0x1cf4 <main+0x74>
    1cbe:	a8 f0       	brcs	.+42     	; 0x1cea <main+0x6a>
    1cc0:	86 30       	cpi	r24, 0x06	; 6
    1cc2:	f9 f4       	brne	.+62     	; 0x1d02 <main+0x82>
    1cc4:	1b c0       	rjmp	.+54     	; 0x1cfc <main+0x7c>
	{
	case OCZEKIWANIE:
	Miganie();
    1cc6:	0e 94 8f 01 	call	0x31e	; 0x31e <Miganie>
	break;
    1cca:	ee cf       	rjmp	.-36     	; 0x1ca8 <main+0x28>
	
	case DESZCZ:
	Deszcz(60);
    1ccc:	8c e3       	ldi	r24, 0x3C	; 60
    1cce:	90 e0       	ldi	r25, 0x00	; 0
    1cd0:	0e 94 6f 09 	call	0x12de	; 0x12de <Deszcz>
	break;
    1cd4:	e9 cf       	rjmp	.-46     	; 0x1ca8 <main+0x28>
	
	case PLASZCZYZNA:
	Plaszczyzna(60);
    1cd6:	8c e3       	ldi	r24, 0x3C	; 60
    1cd8:	90 e0       	ldi	r25, 0x00	; 0
    1cda:	0e 94 c9 08 	call	0x1192	; 0x1192 <Plaszczyzna>
	break;
    1cde:	e4 cf       	rjmp	.-56     	; 0x1ca8 <main+0x28>
	
	case WOOPWOOP:
	WoopWoop(60);
    1ce0:	8c e3       	ldi	r24, 0x3C	; 60
    1ce2:	90 e0       	ldi	r25, 0x00	; 0
    1ce4:	0e 94 82 08 	call	0x1104	; 0x1104 <WoopWoop>
	break;
    1ce8:	df cf       	rjmp	.-66     	; 0x1ca8 <main+0x28>
	
	case HOOPHOOP:
	HoopHoop(60);
    1cea:	8c e3       	ldi	r24, 0x3C	; 60
    1cec:	90 e0       	ldi	r25, 0x00	; 0
    1cee:	0e 94 30 08 	call	0x1060	; 0x1060 <HoopHoop>
	break;
    1cf2:	da cf       	rjmp	.-76     	; 0x1ca8 <main+0x28>
	
	case WYSWIETLTEKST:
	WyswietlTekst(liczbaZnakow);
    1cf4:	83 e0       	ldi	r24, 0x03	; 3
    1cf6:	0e 94 f8 0a 	call	0x15f0	; 0x15f0 <WyswietlTekst>
	break;
    1cfa:	d6 cf       	rjmp	.-84     	; 0x1ca8 <main+0x28>
	
	case GRA:
	Snake();
    1cfc:	0e 94 4d 0c 	call	0x189a	; 0x189a <Snake>
	break;
    1d00:	d3 cf       	rjmp	.-90     	; 0x1ca8 <main+0x28>
	
	default:
	stan=OCZEKIWANIE;
    1d02:	10 92 bf 03 	sts	0x03BF, r1
	break;
    1d06:	d0 cf       	rjmp	.-96     	; 0x1ca8 <main+0x28>

00001d08 <__divsf3>:
    1d08:	0c d0       	rcall	.+24     	; 0x1d22 <__divsf3x>
    1d0a:	eb c0       	rjmp	.+470    	; 0x1ee2 <__fp_round>
    1d0c:	e3 d0       	rcall	.+454    	; 0x1ed4 <__fp_pscB>
    1d0e:	40 f0       	brcs	.+16     	; 0x1d20 <__divsf3+0x18>
    1d10:	da d0       	rcall	.+436    	; 0x1ec6 <__fp_pscA>
    1d12:	30 f0       	brcs	.+12     	; 0x1d20 <__divsf3+0x18>
    1d14:	21 f4       	brne	.+8      	; 0x1d1e <__divsf3+0x16>
    1d16:	5f 3f       	cpi	r21, 0xFF	; 255
    1d18:	19 f0       	breq	.+6      	; 0x1d20 <__divsf3+0x18>
    1d1a:	cc c0       	rjmp	.+408    	; 0x1eb4 <__fp_inf>
    1d1c:	51 11       	cpse	r21, r1
    1d1e:	15 c1       	rjmp	.+554    	; 0x1f4a <__fp_szero>
    1d20:	cf c0       	rjmp	.+414    	; 0x1ec0 <__fp_nan>

00001d22 <__divsf3x>:
    1d22:	f0 d0       	rcall	.+480    	; 0x1f04 <__fp_split3>
    1d24:	98 f3       	brcs	.-26     	; 0x1d0c <__divsf3+0x4>

00001d26 <__divsf3_pse>:
    1d26:	99 23       	and	r25, r25
    1d28:	c9 f3       	breq	.-14     	; 0x1d1c <__divsf3+0x14>
    1d2a:	55 23       	and	r21, r21
    1d2c:	b1 f3       	breq	.-20     	; 0x1d1a <__divsf3+0x12>
    1d2e:	95 1b       	sub	r25, r21
    1d30:	55 0b       	sbc	r21, r21
    1d32:	bb 27       	eor	r27, r27
    1d34:	aa 27       	eor	r26, r26
    1d36:	62 17       	cp	r22, r18
    1d38:	73 07       	cpc	r23, r19
    1d3a:	84 07       	cpc	r24, r20
    1d3c:	38 f0       	brcs	.+14     	; 0x1d4c <__divsf3_pse+0x26>
    1d3e:	9f 5f       	subi	r25, 0xFF	; 255
    1d40:	5f 4f       	sbci	r21, 0xFF	; 255
    1d42:	22 0f       	add	r18, r18
    1d44:	33 1f       	adc	r19, r19
    1d46:	44 1f       	adc	r20, r20
    1d48:	aa 1f       	adc	r26, r26
    1d4a:	a9 f3       	breq	.-22     	; 0x1d36 <__divsf3_pse+0x10>
    1d4c:	33 d0       	rcall	.+102    	; 0x1db4 <__divsf3_pse+0x8e>
    1d4e:	0e 2e       	mov	r0, r30
    1d50:	3a f0       	brmi	.+14     	; 0x1d60 <__divsf3_pse+0x3a>
    1d52:	e0 e8       	ldi	r30, 0x80	; 128
    1d54:	30 d0       	rcall	.+96     	; 0x1db6 <__divsf3_pse+0x90>
    1d56:	91 50       	subi	r25, 0x01	; 1
    1d58:	50 40       	sbci	r21, 0x00	; 0
    1d5a:	e6 95       	lsr	r30
    1d5c:	00 1c       	adc	r0, r0
    1d5e:	ca f7       	brpl	.-14     	; 0x1d52 <__divsf3_pse+0x2c>
    1d60:	29 d0       	rcall	.+82     	; 0x1db4 <__divsf3_pse+0x8e>
    1d62:	fe 2f       	mov	r31, r30
    1d64:	27 d0       	rcall	.+78     	; 0x1db4 <__divsf3_pse+0x8e>
    1d66:	66 0f       	add	r22, r22
    1d68:	77 1f       	adc	r23, r23
    1d6a:	88 1f       	adc	r24, r24
    1d6c:	bb 1f       	adc	r27, r27
    1d6e:	26 17       	cp	r18, r22
    1d70:	37 07       	cpc	r19, r23
    1d72:	48 07       	cpc	r20, r24
    1d74:	ab 07       	cpc	r26, r27
    1d76:	b0 e8       	ldi	r27, 0x80	; 128
    1d78:	09 f0       	breq	.+2      	; 0x1d7c <__divsf3_pse+0x56>
    1d7a:	bb 0b       	sbc	r27, r27
    1d7c:	80 2d       	mov	r24, r0
    1d7e:	bf 01       	movw	r22, r30
    1d80:	ff 27       	eor	r31, r31
    1d82:	93 58       	subi	r25, 0x83	; 131
    1d84:	5f 4f       	sbci	r21, 0xFF	; 255
    1d86:	2a f0       	brmi	.+10     	; 0x1d92 <__divsf3_pse+0x6c>
    1d88:	9e 3f       	cpi	r25, 0xFE	; 254
    1d8a:	51 05       	cpc	r21, r1
    1d8c:	68 f0       	brcs	.+26     	; 0x1da8 <__divsf3_pse+0x82>
    1d8e:	92 c0       	rjmp	.+292    	; 0x1eb4 <__fp_inf>
    1d90:	dc c0       	rjmp	.+440    	; 0x1f4a <__fp_szero>
    1d92:	5f 3f       	cpi	r21, 0xFF	; 255
    1d94:	ec f3       	brlt	.-6      	; 0x1d90 <__divsf3_pse+0x6a>
    1d96:	98 3e       	cpi	r25, 0xE8	; 232
    1d98:	dc f3       	brlt	.-10     	; 0x1d90 <__divsf3_pse+0x6a>
    1d9a:	86 95       	lsr	r24
    1d9c:	77 95       	ror	r23
    1d9e:	67 95       	ror	r22
    1da0:	b7 95       	ror	r27
    1da2:	f7 95       	ror	r31
    1da4:	9f 5f       	subi	r25, 0xFF	; 255
    1da6:	c9 f7       	brne	.-14     	; 0x1d9a <__divsf3_pse+0x74>
    1da8:	88 0f       	add	r24, r24
    1daa:	91 1d       	adc	r25, r1
    1dac:	96 95       	lsr	r25
    1dae:	87 95       	ror	r24
    1db0:	97 f9       	bld	r25, 7
    1db2:	08 95       	ret
    1db4:	e1 e0       	ldi	r30, 0x01	; 1
    1db6:	66 0f       	add	r22, r22
    1db8:	77 1f       	adc	r23, r23
    1dba:	88 1f       	adc	r24, r24
    1dbc:	bb 1f       	adc	r27, r27
    1dbe:	62 17       	cp	r22, r18
    1dc0:	73 07       	cpc	r23, r19
    1dc2:	84 07       	cpc	r24, r20
    1dc4:	ba 07       	cpc	r27, r26
    1dc6:	20 f0       	brcs	.+8      	; 0x1dd0 <__divsf3_pse+0xaa>
    1dc8:	62 1b       	sub	r22, r18
    1dca:	73 0b       	sbc	r23, r19
    1dcc:	84 0b       	sbc	r24, r20
    1dce:	ba 0b       	sbc	r27, r26
    1dd0:	ee 1f       	adc	r30, r30
    1dd2:	88 f7       	brcc	.-30     	; 0x1db6 <__divsf3_pse+0x90>
    1dd4:	e0 95       	com	r30
    1dd6:	08 95       	ret

00001dd8 <__fixsfsi>:
    1dd8:	04 d0       	rcall	.+8      	; 0x1de2 <__fixunssfsi>
    1dda:	68 94       	set
    1ddc:	b1 11       	cpse	r27, r1
    1dde:	b5 c0       	rjmp	.+362    	; 0x1f4a <__fp_szero>
    1de0:	08 95       	ret

00001de2 <__fixunssfsi>:
    1de2:	98 d0       	rcall	.+304    	; 0x1f14 <__fp_splitA>
    1de4:	88 f0       	brcs	.+34     	; 0x1e08 <__fixunssfsi+0x26>
    1de6:	9f 57       	subi	r25, 0x7F	; 127
    1de8:	90 f0       	brcs	.+36     	; 0x1e0e <__fixunssfsi+0x2c>
    1dea:	b9 2f       	mov	r27, r25
    1dec:	99 27       	eor	r25, r25
    1dee:	b7 51       	subi	r27, 0x17	; 23
    1df0:	a0 f0       	brcs	.+40     	; 0x1e1a <__fixunssfsi+0x38>
    1df2:	d1 f0       	breq	.+52     	; 0x1e28 <__fixunssfsi+0x46>
    1df4:	66 0f       	add	r22, r22
    1df6:	77 1f       	adc	r23, r23
    1df8:	88 1f       	adc	r24, r24
    1dfa:	99 1f       	adc	r25, r25
    1dfc:	1a f0       	brmi	.+6      	; 0x1e04 <__fixunssfsi+0x22>
    1dfe:	ba 95       	dec	r27
    1e00:	c9 f7       	brne	.-14     	; 0x1df4 <__fixunssfsi+0x12>
    1e02:	12 c0       	rjmp	.+36     	; 0x1e28 <__fixunssfsi+0x46>
    1e04:	b1 30       	cpi	r27, 0x01	; 1
    1e06:	81 f0       	breq	.+32     	; 0x1e28 <__fixunssfsi+0x46>
    1e08:	9f d0       	rcall	.+318    	; 0x1f48 <__fp_zero>
    1e0a:	b1 e0       	ldi	r27, 0x01	; 1
    1e0c:	08 95       	ret
    1e0e:	9c c0       	rjmp	.+312    	; 0x1f48 <__fp_zero>
    1e10:	67 2f       	mov	r22, r23
    1e12:	78 2f       	mov	r23, r24
    1e14:	88 27       	eor	r24, r24
    1e16:	b8 5f       	subi	r27, 0xF8	; 248
    1e18:	39 f0       	breq	.+14     	; 0x1e28 <__fixunssfsi+0x46>
    1e1a:	b9 3f       	cpi	r27, 0xF9	; 249
    1e1c:	cc f3       	brlt	.-14     	; 0x1e10 <__fixunssfsi+0x2e>
    1e1e:	86 95       	lsr	r24
    1e20:	77 95       	ror	r23
    1e22:	67 95       	ror	r22
    1e24:	b3 95       	inc	r27
    1e26:	d9 f7       	brne	.-10     	; 0x1e1e <__fixunssfsi+0x3c>
    1e28:	3e f4       	brtc	.+14     	; 0x1e38 <__fixunssfsi+0x56>
    1e2a:	90 95       	com	r25
    1e2c:	80 95       	com	r24
    1e2e:	70 95       	com	r23
    1e30:	61 95       	neg	r22
    1e32:	7f 4f       	sbci	r23, 0xFF	; 255
    1e34:	8f 4f       	sbci	r24, 0xFF	; 255
    1e36:	9f 4f       	sbci	r25, 0xFF	; 255
    1e38:	08 95       	ret

00001e3a <__floatunsisf>:
    1e3a:	e8 94       	clt
    1e3c:	09 c0       	rjmp	.+18     	; 0x1e50 <__floatsisf+0x12>

00001e3e <__floatsisf>:
    1e3e:	97 fb       	bst	r25, 7
    1e40:	3e f4       	brtc	.+14     	; 0x1e50 <__floatsisf+0x12>
    1e42:	90 95       	com	r25
    1e44:	80 95       	com	r24
    1e46:	70 95       	com	r23
    1e48:	61 95       	neg	r22
    1e4a:	7f 4f       	sbci	r23, 0xFF	; 255
    1e4c:	8f 4f       	sbci	r24, 0xFF	; 255
    1e4e:	9f 4f       	sbci	r25, 0xFF	; 255
    1e50:	99 23       	and	r25, r25
    1e52:	a9 f0       	breq	.+42     	; 0x1e7e <__floatsisf+0x40>
    1e54:	f9 2f       	mov	r31, r25
    1e56:	96 e9       	ldi	r25, 0x96	; 150
    1e58:	bb 27       	eor	r27, r27
    1e5a:	93 95       	inc	r25
    1e5c:	f6 95       	lsr	r31
    1e5e:	87 95       	ror	r24
    1e60:	77 95       	ror	r23
    1e62:	67 95       	ror	r22
    1e64:	b7 95       	ror	r27
    1e66:	f1 11       	cpse	r31, r1
    1e68:	f8 cf       	rjmp	.-16     	; 0x1e5a <__floatsisf+0x1c>
    1e6a:	fa f4       	brpl	.+62     	; 0x1eaa <__floatsisf+0x6c>
    1e6c:	bb 0f       	add	r27, r27
    1e6e:	11 f4       	brne	.+4      	; 0x1e74 <__floatsisf+0x36>
    1e70:	60 ff       	sbrs	r22, 0
    1e72:	1b c0       	rjmp	.+54     	; 0x1eaa <__floatsisf+0x6c>
    1e74:	6f 5f       	subi	r22, 0xFF	; 255
    1e76:	7f 4f       	sbci	r23, 0xFF	; 255
    1e78:	8f 4f       	sbci	r24, 0xFF	; 255
    1e7a:	9f 4f       	sbci	r25, 0xFF	; 255
    1e7c:	16 c0       	rjmp	.+44     	; 0x1eaa <__floatsisf+0x6c>
    1e7e:	88 23       	and	r24, r24
    1e80:	11 f0       	breq	.+4      	; 0x1e86 <__floatsisf+0x48>
    1e82:	96 e9       	ldi	r25, 0x96	; 150
    1e84:	11 c0       	rjmp	.+34     	; 0x1ea8 <__floatsisf+0x6a>
    1e86:	77 23       	and	r23, r23
    1e88:	21 f0       	breq	.+8      	; 0x1e92 <__floatsisf+0x54>
    1e8a:	9e e8       	ldi	r25, 0x8E	; 142
    1e8c:	87 2f       	mov	r24, r23
    1e8e:	76 2f       	mov	r23, r22
    1e90:	05 c0       	rjmp	.+10     	; 0x1e9c <__floatsisf+0x5e>
    1e92:	66 23       	and	r22, r22
    1e94:	71 f0       	breq	.+28     	; 0x1eb2 <__floatsisf+0x74>
    1e96:	96 e8       	ldi	r25, 0x86	; 134
    1e98:	86 2f       	mov	r24, r22
    1e9a:	70 e0       	ldi	r23, 0x00	; 0
    1e9c:	60 e0       	ldi	r22, 0x00	; 0
    1e9e:	2a f0       	brmi	.+10     	; 0x1eaa <__floatsisf+0x6c>
    1ea0:	9a 95       	dec	r25
    1ea2:	66 0f       	add	r22, r22
    1ea4:	77 1f       	adc	r23, r23
    1ea6:	88 1f       	adc	r24, r24
    1ea8:	da f7       	brpl	.-10     	; 0x1ea0 <__floatsisf+0x62>
    1eaa:	88 0f       	add	r24, r24
    1eac:	96 95       	lsr	r25
    1eae:	87 95       	ror	r24
    1eb0:	97 f9       	bld	r25, 7
    1eb2:	08 95       	ret

00001eb4 <__fp_inf>:
    1eb4:	97 f9       	bld	r25, 7
    1eb6:	9f 67       	ori	r25, 0x7F	; 127
    1eb8:	80 e8       	ldi	r24, 0x80	; 128
    1eba:	70 e0       	ldi	r23, 0x00	; 0
    1ebc:	60 e0       	ldi	r22, 0x00	; 0
    1ebe:	08 95       	ret

00001ec0 <__fp_nan>:
    1ec0:	9f ef       	ldi	r25, 0xFF	; 255
    1ec2:	80 ec       	ldi	r24, 0xC0	; 192
    1ec4:	08 95       	ret

00001ec6 <__fp_pscA>:
    1ec6:	00 24       	eor	r0, r0
    1ec8:	0a 94       	dec	r0
    1eca:	16 16       	cp	r1, r22
    1ecc:	17 06       	cpc	r1, r23
    1ece:	18 06       	cpc	r1, r24
    1ed0:	09 06       	cpc	r0, r25
    1ed2:	08 95       	ret

00001ed4 <__fp_pscB>:
    1ed4:	00 24       	eor	r0, r0
    1ed6:	0a 94       	dec	r0
    1ed8:	12 16       	cp	r1, r18
    1eda:	13 06       	cpc	r1, r19
    1edc:	14 06       	cpc	r1, r20
    1ede:	05 06       	cpc	r0, r21
    1ee0:	08 95       	ret

00001ee2 <__fp_round>:
    1ee2:	09 2e       	mov	r0, r25
    1ee4:	03 94       	inc	r0
    1ee6:	00 0c       	add	r0, r0
    1ee8:	11 f4       	brne	.+4      	; 0x1eee <__fp_round+0xc>
    1eea:	88 23       	and	r24, r24
    1eec:	52 f0       	brmi	.+20     	; 0x1f02 <__fp_round+0x20>
    1eee:	bb 0f       	add	r27, r27
    1ef0:	40 f4       	brcc	.+16     	; 0x1f02 <__fp_round+0x20>
    1ef2:	bf 2b       	or	r27, r31
    1ef4:	11 f4       	brne	.+4      	; 0x1efa <__fp_round+0x18>
    1ef6:	60 ff       	sbrs	r22, 0
    1ef8:	04 c0       	rjmp	.+8      	; 0x1f02 <__fp_round+0x20>
    1efa:	6f 5f       	subi	r22, 0xFF	; 255
    1efc:	7f 4f       	sbci	r23, 0xFF	; 255
    1efe:	8f 4f       	sbci	r24, 0xFF	; 255
    1f00:	9f 4f       	sbci	r25, 0xFF	; 255
    1f02:	08 95       	ret

00001f04 <__fp_split3>:
    1f04:	57 fd       	sbrc	r21, 7
    1f06:	90 58       	subi	r25, 0x80	; 128
    1f08:	44 0f       	add	r20, r20
    1f0a:	55 1f       	adc	r21, r21
    1f0c:	59 f0       	breq	.+22     	; 0x1f24 <__fp_splitA+0x10>
    1f0e:	5f 3f       	cpi	r21, 0xFF	; 255
    1f10:	71 f0       	breq	.+28     	; 0x1f2e <__fp_splitA+0x1a>
    1f12:	47 95       	ror	r20

00001f14 <__fp_splitA>:
    1f14:	88 0f       	add	r24, r24
    1f16:	97 fb       	bst	r25, 7
    1f18:	99 1f       	adc	r25, r25
    1f1a:	61 f0       	breq	.+24     	; 0x1f34 <__fp_splitA+0x20>
    1f1c:	9f 3f       	cpi	r25, 0xFF	; 255
    1f1e:	79 f0       	breq	.+30     	; 0x1f3e <__fp_splitA+0x2a>
    1f20:	87 95       	ror	r24
    1f22:	08 95       	ret
    1f24:	12 16       	cp	r1, r18
    1f26:	13 06       	cpc	r1, r19
    1f28:	14 06       	cpc	r1, r20
    1f2a:	55 1f       	adc	r21, r21
    1f2c:	f2 cf       	rjmp	.-28     	; 0x1f12 <__fp_split3+0xe>
    1f2e:	46 95       	lsr	r20
    1f30:	f1 df       	rcall	.-30     	; 0x1f14 <__fp_splitA>
    1f32:	08 c0       	rjmp	.+16     	; 0x1f44 <__fp_splitA+0x30>
    1f34:	16 16       	cp	r1, r22
    1f36:	17 06       	cpc	r1, r23
    1f38:	18 06       	cpc	r1, r24
    1f3a:	99 1f       	adc	r25, r25
    1f3c:	f1 cf       	rjmp	.-30     	; 0x1f20 <__fp_splitA+0xc>
    1f3e:	86 95       	lsr	r24
    1f40:	71 05       	cpc	r23, r1
    1f42:	61 05       	cpc	r22, r1
    1f44:	08 94       	sec
    1f46:	08 95       	ret

00001f48 <__fp_zero>:
    1f48:	e8 94       	clt

00001f4a <__fp_szero>:
    1f4a:	bb 27       	eor	r27, r27
    1f4c:	66 27       	eor	r22, r22
    1f4e:	77 27       	eor	r23, r23
    1f50:	cb 01       	movw	r24, r22
    1f52:	97 f9       	bld	r25, 7
    1f54:	08 95       	ret

00001f56 <__divmodhi4>:
    1f56:	97 fb       	bst	r25, 7
    1f58:	07 2e       	mov	r0, r23
    1f5a:	16 f4       	brtc	.+4      	; 0x1f60 <__divmodhi4+0xa>
    1f5c:	00 94       	com	r0
    1f5e:	07 d0       	rcall	.+14     	; 0x1f6e <__divmodhi4_neg1>
    1f60:	77 fd       	sbrc	r23, 7
    1f62:	09 d0       	rcall	.+18     	; 0x1f76 <__divmodhi4_neg2>
    1f64:	0e 94 bf 0f 	call	0x1f7e	; 0x1f7e <__udivmodhi4>
    1f68:	07 fc       	sbrc	r0, 7
    1f6a:	05 d0       	rcall	.+10     	; 0x1f76 <__divmodhi4_neg2>
    1f6c:	3e f4       	brtc	.+14     	; 0x1f7c <__divmodhi4_exit>

00001f6e <__divmodhi4_neg1>:
    1f6e:	90 95       	com	r25
    1f70:	81 95       	neg	r24
    1f72:	9f 4f       	sbci	r25, 0xFF	; 255
    1f74:	08 95       	ret

00001f76 <__divmodhi4_neg2>:
    1f76:	70 95       	com	r23
    1f78:	61 95       	neg	r22
    1f7a:	7f 4f       	sbci	r23, 0xFF	; 255

00001f7c <__divmodhi4_exit>:
    1f7c:	08 95       	ret

00001f7e <__udivmodhi4>:
    1f7e:	aa 1b       	sub	r26, r26
    1f80:	bb 1b       	sub	r27, r27
    1f82:	51 e1       	ldi	r21, 0x11	; 17
    1f84:	07 c0       	rjmp	.+14     	; 0x1f94 <__udivmodhi4_ep>

00001f86 <__udivmodhi4_loop>:
    1f86:	aa 1f       	adc	r26, r26
    1f88:	bb 1f       	adc	r27, r27
    1f8a:	a6 17       	cp	r26, r22
    1f8c:	b7 07       	cpc	r27, r23
    1f8e:	10 f0       	brcs	.+4      	; 0x1f94 <__udivmodhi4_ep>
    1f90:	a6 1b       	sub	r26, r22
    1f92:	b7 0b       	sbc	r27, r23

00001f94 <__udivmodhi4_ep>:
    1f94:	88 1f       	adc	r24, r24
    1f96:	99 1f       	adc	r25, r25
    1f98:	5a 95       	dec	r21
    1f9a:	a9 f7       	brne	.-22     	; 0x1f86 <__udivmodhi4_loop>
    1f9c:	80 95       	com	r24
    1f9e:	90 95       	com	r25
    1fa0:	bc 01       	movw	r22, r24
    1fa2:	cd 01       	movw	r24, r26
    1fa4:	08 95       	ret

00001fa6 <do_rand>:
    1fa6:	8f 92       	push	r8
    1fa8:	9f 92       	push	r9
    1faa:	af 92       	push	r10
    1fac:	bf 92       	push	r11
    1fae:	cf 92       	push	r12
    1fb0:	df 92       	push	r13
    1fb2:	ef 92       	push	r14
    1fb4:	ff 92       	push	r15
    1fb6:	cf 93       	push	r28
    1fb8:	df 93       	push	r29
    1fba:	ec 01       	movw	r28, r24
    1fbc:	68 81       	ld	r22, Y
    1fbe:	79 81       	ldd	r23, Y+1	; 0x01
    1fc0:	8a 81       	ldd	r24, Y+2	; 0x02
    1fc2:	9b 81       	ldd	r25, Y+3	; 0x03
    1fc4:	61 15       	cp	r22, r1
    1fc6:	71 05       	cpc	r23, r1
    1fc8:	81 05       	cpc	r24, r1
    1fca:	91 05       	cpc	r25, r1
    1fcc:	21 f4       	brne	.+8      	; 0x1fd6 <do_rand+0x30>
    1fce:	64 e2       	ldi	r22, 0x24	; 36
    1fd0:	79 ed       	ldi	r23, 0xD9	; 217
    1fd2:	8b e5       	ldi	r24, 0x5B	; 91
    1fd4:	97 e0       	ldi	r25, 0x07	; 7
    1fd6:	2d e1       	ldi	r18, 0x1D	; 29
    1fd8:	33 ef       	ldi	r19, 0xF3	; 243
    1fda:	41 e0       	ldi	r20, 0x01	; 1
    1fdc:	50 e0       	ldi	r21, 0x00	; 0
    1fde:	0e 94 34 10 	call	0x2068	; 0x2068 <__divmodsi4>
    1fe2:	49 01       	movw	r8, r18
    1fe4:	5a 01       	movw	r10, r20
    1fe6:	9b 01       	movw	r18, r22
    1fe8:	ac 01       	movw	r20, r24
    1fea:	a7 ea       	ldi	r26, 0xA7	; 167
    1fec:	b1 e4       	ldi	r27, 0x41	; 65
    1fee:	0e 94 50 10 	call	0x20a0	; 0x20a0 <__muluhisi3>
    1ff2:	6b 01       	movw	r12, r22
    1ff4:	7c 01       	movw	r14, r24
    1ff6:	ac ee       	ldi	r26, 0xEC	; 236
    1ff8:	b4 ef       	ldi	r27, 0xF4	; 244
    1ffa:	a5 01       	movw	r20, r10
    1ffc:	94 01       	movw	r18, r8
    1ffe:	0e 94 5e 10 	call	0x20bc	; 0x20bc <__mulohisi3>
    2002:	c6 0e       	add	r12, r22
    2004:	d7 1e       	adc	r13, r23
    2006:	e8 1e       	adc	r14, r24
    2008:	f9 1e       	adc	r15, r25
    200a:	f7 fe       	sbrs	r15, 7
    200c:	06 c0       	rjmp	.+12     	; 0x201a <do_rand+0x74>
    200e:	81 e0       	ldi	r24, 0x01	; 1
    2010:	c8 1a       	sub	r12, r24
    2012:	d1 08       	sbc	r13, r1
    2014:	e1 08       	sbc	r14, r1
    2016:	80 e8       	ldi	r24, 0x80	; 128
    2018:	f8 0a       	sbc	r15, r24
    201a:	c8 82       	st	Y, r12
    201c:	d9 82       	std	Y+1, r13	; 0x01
    201e:	ea 82       	std	Y+2, r14	; 0x02
    2020:	fb 82       	std	Y+3, r15	; 0x03
    2022:	e8 94       	clt
    2024:	d7 f8       	bld	r13, 7
    2026:	ee 24       	eor	r14, r14
    2028:	ff 24       	eor	r15, r15
    202a:	c6 01       	movw	r24, r12
    202c:	df 91       	pop	r29
    202e:	cf 91       	pop	r28
    2030:	ff 90       	pop	r15
    2032:	ef 90       	pop	r14
    2034:	df 90       	pop	r13
    2036:	cf 90       	pop	r12
    2038:	bf 90       	pop	r11
    203a:	af 90       	pop	r10
    203c:	9f 90       	pop	r9
    203e:	8f 90       	pop	r8
    2040:	08 95       	ret

00002042 <rand_r>:
    2042:	0e 94 d3 0f 	call	0x1fa6	; 0x1fa6 <do_rand>
    2046:	08 95       	ret

00002048 <rand>:
    2048:	80 e6       	ldi	r24, 0x60	; 96
    204a:	90 e0       	ldi	r25, 0x00	; 0
    204c:	0e 94 d3 0f 	call	0x1fa6	; 0x1fa6 <do_rand>
    2050:	08 95       	ret

00002052 <srand>:
    2052:	a0 e0       	ldi	r26, 0x00	; 0
    2054:	b0 e0       	ldi	r27, 0x00	; 0
    2056:	80 93 60 00 	sts	0x0060, r24
    205a:	90 93 61 00 	sts	0x0061, r25
    205e:	a0 93 62 00 	sts	0x0062, r26
    2062:	b0 93 63 00 	sts	0x0063, r27
    2066:	08 95       	ret

00002068 <__divmodsi4>:
    2068:	05 2e       	mov	r0, r21
    206a:	97 fb       	bst	r25, 7
    206c:	16 f4       	brtc	.+4      	; 0x2072 <__divmodsi4+0xa>
    206e:	00 94       	com	r0
    2070:	07 d0       	rcall	.+14     	; 0x2080 <__divmodsi4_neg1>
    2072:	57 fd       	sbrc	r21, 7
    2074:	0d d0       	rcall	.+26     	; 0x2090 <__divmodsi4_neg2>
    2076:	0e 94 63 10 	call	0x20c6	; 0x20c6 <__udivmodsi4>
    207a:	07 fc       	sbrc	r0, 7
    207c:	09 d0       	rcall	.+18     	; 0x2090 <__divmodsi4_neg2>
    207e:	7e f4       	brtc	.+30     	; 0x209e <__divmodsi4_exit>

00002080 <__divmodsi4_neg1>:
    2080:	90 95       	com	r25
    2082:	80 95       	com	r24
    2084:	70 95       	com	r23
    2086:	61 95       	neg	r22
    2088:	7f 4f       	sbci	r23, 0xFF	; 255
    208a:	8f 4f       	sbci	r24, 0xFF	; 255
    208c:	9f 4f       	sbci	r25, 0xFF	; 255
    208e:	08 95       	ret

00002090 <__divmodsi4_neg2>:
    2090:	50 95       	com	r21
    2092:	40 95       	com	r20
    2094:	30 95       	com	r19
    2096:	21 95       	neg	r18
    2098:	3f 4f       	sbci	r19, 0xFF	; 255
    209a:	4f 4f       	sbci	r20, 0xFF	; 255
    209c:	5f 4f       	sbci	r21, 0xFF	; 255

0000209e <__divmodsi4_exit>:
    209e:	08 95       	ret

000020a0 <__muluhisi3>:
    20a0:	0e 94 85 10 	call	0x210a	; 0x210a <__umulhisi3>
    20a4:	a5 9f       	mul	r26, r21
    20a6:	90 0d       	add	r25, r0
    20a8:	b4 9f       	mul	r27, r20
    20aa:	90 0d       	add	r25, r0
    20ac:	a4 9f       	mul	r26, r20
    20ae:	80 0d       	add	r24, r0
    20b0:	91 1d       	adc	r25, r1
    20b2:	11 24       	eor	r1, r1
    20b4:	08 95       	ret

000020b6 <__mulshisi3>:
    20b6:	b7 ff       	sbrs	r27, 7
    20b8:	0c 94 50 10 	jmp	0x20a0	; 0x20a0 <__muluhisi3>

000020bc <__mulohisi3>:
    20bc:	0e 94 50 10 	call	0x20a0	; 0x20a0 <__muluhisi3>
    20c0:	82 1b       	sub	r24, r18
    20c2:	93 0b       	sbc	r25, r19
    20c4:	08 95       	ret

000020c6 <__udivmodsi4>:
    20c6:	a1 e2       	ldi	r26, 0x21	; 33
    20c8:	1a 2e       	mov	r1, r26
    20ca:	aa 1b       	sub	r26, r26
    20cc:	bb 1b       	sub	r27, r27
    20ce:	fd 01       	movw	r30, r26
    20d0:	0d c0       	rjmp	.+26     	; 0x20ec <__udivmodsi4_ep>

000020d2 <__udivmodsi4_loop>:
    20d2:	aa 1f       	adc	r26, r26
    20d4:	bb 1f       	adc	r27, r27
    20d6:	ee 1f       	adc	r30, r30
    20d8:	ff 1f       	adc	r31, r31
    20da:	a2 17       	cp	r26, r18
    20dc:	b3 07       	cpc	r27, r19
    20de:	e4 07       	cpc	r30, r20
    20e0:	f5 07       	cpc	r31, r21
    20e2:	20 f0       	brcs	.+8      	; 0x20ec <__udivmodsi4_ep>
    20e4:	a2 1b       	sub	r26, r18
    20e6:	b3 0b       	sbc	r27, r19
    20e8:	e4 0b       	sbc	r30, r20
    20ea:	f5 0b       	sbc	r31, r21

000020ec <__udivmodsi4_ep>:
    20ec:	66 1f       	adc	r22, r22
    20ee:	77 1f       	adc	r23, r23
    20f0:	88 1f       	adc	r24, r24
    20f2:	99 1f       	adc	r25, r25
    20f4:	1a 94       	dec	r1
    20f6:	69 f7       	brne	.-38     	; 0x20d2 <__udivmodsi4_loop>
    20f8:	60 95       	com	r22
    20fa:	70 95       	com	r23
    20fc:	80 95       	com	r24
    20fe:	90 95       	com	r25
    2100:	9b 01       	movw	r18, r22
    2102:	ac 01       	movw	r20, r24
    2104:	bd 01       	movw	r22, r26
    2106:	cf 01       	movw	r24, r30
    2108:	08 95       	ret

0000210a <__umulhisi3>:
    210a:	a2 9f       	mul	r26, r18
    210c:	b0 01       	movw	r22, r0
    210e:	b3 9f       	mul	r27, r19
    2110:	c0 01       	movw	r24, r0
    2112:	a3 9f       	mul	r26, r19
    2114:	01 d0       	rcall	.+2      	; 0x2118 <__umulhisi3+0xe>
    2116:	b2 9f       	mul	r27, r18
    2118:	70 0d       	add	r23, r0
    211a:	81 1d       	adc	r24, r1
    211c:	11 24       	eor	r1, r1
    211e:	91 1d       	adc	r25, r1
    2120:	08 95       	ret

00002122 <_exit>:
    2122:	f8 94       	cli

00002124 <__stop_program>:
    2124:	ff cf       	rjmp	.-2      	; 0x2124 <__stop_program>
